(dp0
S'ocean blue'
p1
(S'ocean'
p2
S'blue'
p3
tp4
sS'sea green'
p5
(S'sea'
p6
S'green'
p7
tp8
sS'royal purple'
p9
(S'royal'
p10
S'purple'
p11
tp12
sS'olive brown'
p13
(S'olive'
p14
S'brown'
p15
tp16
sS'grey-brown'
p17
(S'grey'
p18
g15
tp19
sS'lemon lime'
p20
(S'lemon'
p21
S'lime'
p22
tp23
sS'puke yellow'
p24
(S'puke'
p25
S'yellow'
p26
tp27
sS'purple grey'
p28
(g11
g18
tp29
sS'apple green'
p30
(S'apple'
p31
g7
tp32
sS'pink-purple'
p33
(S'pink'
p34
g11
tp35
sS'violet red'
p36
(S'violet'
p37
S'red'
p38
tp39
sS'green-blue'
p40
(g7
g3
tp41
sS'vomit green'
p42
(S'vomit'
p43
g7
tp44
sS'vomit yellow'
p45
(g43
g26
tp46
sS'green-yellow'
p47
(g7
g26
tp48
sS'shit green'
p49
(S'shit'
p50
g7
tp51
sS'lime yellow'
p52
(g22
g26
tp53
sS'violet pink'
p54
(g37
g34
tp55
sS'blue-grey'
p56
(g3
g18
tp57
sS'indigo blue'
p58
(S'indigo'
p59
g3
tp60
sS'seafoam blue'
p61
(S'seafoam'
p62
g3
tp63
sS'aqua blue'
p64
(S'aqua'
p65
g3
tp66
sS'brown-green'
p67
(g15
g7
tp68
sS'red-purple'
p69
(g38
g11
tp70
sS'green-brown'
p71
(g7
g15
tp72
sS'rose red'
p73
(S'rose'
p74
g38
tp75
sS'brown-orange'
p76
(g15
S'orange'
p77
tp78
sS'golden yellow'
p79
(S'golden'
p80
g26
tp81
sS'navy green'
p82
(S'navy'
p83
g7
tp84
sS'steel blue'
p85
(S'steel'
p86
g3
tp87
sS'pink-red'
p88
(g34
g38
tp89
sS'grey blue'
p90
(g18
g3
tp91
sS'puke brown'
p92
(g25
g15
tp93
sS'purple-brown'
p94
(g11
g15
tp95
sS'brick red'
p96
(S'brick'
p97
g38
tp98
sS'tan brown'
p99
(S'tan'
p100
g15
tp101
sS'sandy yellow'
p102
(S'sandy'
p103
g26
tp104
sS'shit brown'
p105
(g50
g15
tp106
sS'grey purple'
p107
(g18
g11
tp108
sS'yellow-green'
p109
(g26
g7
tp110
sS'royal blue'
p111
(g10
g3
tp112
sS'teal green'
p113
(S'teal'
p114
g7
tp115
sS'turquoise blue'
p116
(S'turquoise'
p117
g3
tp118
sS'blush pink'
p119
(S'blush'
p120
g34
tp121
sS'midnight blue'
p122
(S'midnight'
p123
g3
tp124
sS'slate green'
p125
(S'slate'
p126
g7
tp127
sS'violet blue'
p128
(g37
g3
tp129
sS'yellow-orange'
p130
(g26
g77
tp131
sS'midnight purple'
p132
(g123
g11
tp133
sS'grey pink'
p134
(g18
g34
tp135
sS'orange-brown'
p136
(g77
g15
tp137
sS'lavender blue'
p138
(S'lavender'
p139
g3
tp140
sS'poop green'
p141
(S'poop'
p142
g7
tp143
sS'lemon yellow'
p144
(g21
g26
tp145
sS'olive green'
p146
(g14
g7
tp147
sS'steel grey'
p148
(g86
g18
tp149
sS'red-brown'
p150
(g38
g15
tp151
sS'sandy brown'
p152
(g103
g15
tp153
sS'blue violet'
p154
(g3
g37
tp155
sS'blue-purple'
p156
(g3
g11
tp157
sS'aqua green'
p158
(g65
g7
tp159
sS'golden brown'
p160
(g80
g15
tp161
sS'turquoise green'
p162
(g117
g7
tp163
sS'slate grey'
p164
(g126
g18
tp165
sS'rust red'
p166
(S'rust'
p167
g38
tp168
sS'dusk blue'
p169
(S'dusk'
p170
g3
tp171
sS'brown-red'
p172
(g15
g38
tp173
sS'drab green'
p174
(S'drab'
p175
g7
tp176
sS'olive drab'
p177
(g14
g175
tp178
sS'brick orange'
p179
(g97
g77
tp180
sS'mustard brown'
p181
(S'mustard'
p182
g15
tp183
sS'navy blue'
p184
(g83
g3
tp185
sS'mustard green'
p186
(g182
g7
tp187
sS'green apple'
p188
(g7
g31
tp189
sS'orange-yellow'
p190
(g77
g26
tp191
sS'red-orange'
p192
(g38
g77
tp193
sS'yellow-brown'
p194
(g26
g15
tp195
sS'blue-green'
p196
(g3
g7
tp197
sS'brown-grey'
p198
(g15
g18
tp199
sS'purple-pink'
p200
(g11
g34
tp201
sS'purple-red'
p202
(g11
g38
tp203
sS'yellow tan'
p204
(g26
g100
tp205
sS'puke green'
p206
(g25
g7
tp207
sS'rust orange'
p208
(g167
g77
tp209
sS'grey green'
p210
(g18
g7
tp211
sS'green-grey'
p212
(g7
g18
tp213
sS'orange-red'
p214
(g77
g38
tp215
sS'rose pink'
p216
(g74
g34
tp217
sS'purple blue'
p218
(g11
g3
tp219
sS'teal blue'
p220
(g114
g3
tp221
sS'seafoam green'
p222
(g62
g7
tp223
sS'mustard yellow'
p224
(g182
g26
tp225
sS'brown yellow'
p226
(g15
g26
tp227
sS'blood orange'
p228
(S'blood'
p229
g77
tp230
sS'red-pink'
p231
(g38
g34
tp232
sS'poop brown'
p233
(g142
g15
tp234
sS'ocean green'
p235
(g2
g7
tp236
sS'slate blue'
p237
(g126
g3
tp238
sS'red violet'
p239
(g38
g37
tp240
sS'sea blue'
p241
(g6
g3
tp242
s.