(dp0
S'ocean blue'
p1
(S'ocean'
p2
S'blue'
p3
tp4
sS'sea green'
p5
(S'sea'
p6
S'green'
p7
tp8
sS'royal purple'
p9
(S'royal'
p10
S'purple'
p11
tp12
sS'olive brown'
p13
(S'olive'
p14
S'brown'
p15
tp16
sS'grey-brown'
p17
(S'grey'
p18
g15
tp19
sS'lemon lime'
p20
(S'lemon'
p21
S'lime'
p22
tp23
sS'puke yellow'
p24
(S'puke'
p25
S'yellow'
p26
tp27
sS'purple grey'
p28
(g11
g18
tp29
sS'apple green'
p30
(S'apple'
p31
g7
tp32
sS'pink-purple'
p33
(S'pink'
p34
g11
tp35
sS'violet red'
p36
(S'violet'
p37
S'red'
p38
tp39
sS'green-blue'
p40
(g7
g3
tp41
sS'vomit green'
p42
(S'vomit'
p43
g7
tp44
sS'vomit yellow'
p45
(g43
g26
tp46
sS'green-yellow'
p47
(g7
g26
tp48
sS'shit green'
p49
(S'shit'
p50
g7
tp51
sS'lime yellow'
p52
(g22
g26
tp53
sS'violet pink'
p54
(g37
g34
tp55
sS'blue-grey'
p56
(g3
g18
tp57
sS'indigo blue'
p58
(S'indigo'
p59
g3
tp60
sS'seafoam blue'
p61
(S'seafoam'
p62
g3
tp63
sS'aqua blue'
p64
(S'aqua'
p65
g3
tp66
sS'brown-green'
p67
(g15
g7
tp68
sS'red-purple'
p69
(g38
g11
tp70
sS'green-brown'
p71
(g7
g15
tp72
sS'rose red'
p73
(S'rose'
p74
g38
tp75
sS'brown-orange'
p76
(g15
S'orange'
p77
tp78
sS'golden yellow'
p79
(S'golden'
p80
g26
tp81
sS'navy green'
p82
(S'navy'
p83
g7
tp84
sS'steel blue'
p85
(S'steel'
p86
g3
tp87
sS'orange-yellow'
p88
(g77
g26
tp89
sS'grey blue'
p90
(g18
g3
tp91
sS'puke brown'
p92
(g25
g15
tp93
sS'purple-brown'
p94
(g11
g15
tp95
sS'brick red'
p96
(S'brick'
p97
g38
tp98
sS'tan brown'
p99
(S'tan'
p100
g15
tp101
sS'sandy yellow'
p102
(S'sandy'
p103
g26
tp104
sS'shit brown'
p105
(g50
g15
tp106
sS'grey purple'
p107
(g18
g11
tp108
sS'yellow-green'
p109
(g26
g7
tp110
sS'royal blue'
p111
(g10
g3
tp112
sS'teal green'
p113
(S'teal'
p114
g7
tp115
sS'turquoise blue'
p116
(S'turquoise'
p117
g3
tp118
sS'blush pink'
p119
(S'blush'
p120
g34
tp121
sS'midnight blue'
p122
(S'midnight'
p123
g3
tp124
sS'slate green'
p125
(S'slate'
p126
g7
tp127
sS'violet blue'
p128
(g37
g3
tp129
sS'puke green'
p130
(g25
g7
tp131
sS'midnight purple'
p132
(g123
g11
tp133
sS'grey pink'
p134
(g18
g34
tp135
sS'turquoise green'
p136
(g117
g7
tp137
sS'slate grey'
p138
(g126
g18
tp139
sS'poop green'
p140
(S'poop'
p141
g7
tp142
sS'lemon yellow'
p143
(g21
g26
tp144
sS'olive green'
p145
(g14
g7
tp146
sS'steel grey'
p147
(g86
g18
tp148
sS'red-brown'
p149
(g38
g15
tp150
sS'sandy brown'
p151
(g103
g15
tp152
sS'blue violet'
p153
(g3
g37
tp154
sS'blue-purple'
p155
(g3
g11
tp156
sS'aqua green'
p157
(g65
g7
tp158
sS'golden brown'
p159
(g80
g15
tp160
sS'orange-brown'
p161
(g77
g15
tp162
sS'lavender blue'
p163
(S'lavender'
p164
g3
tp165
sS'rust red'
p166
(S'rust'
p167
g38
tp168
sS'dusk blue'
p169
(S'dusk'
p170
g3
tp171
sS'brown-red'
p172
(g15
g38
tp173
sS'drab green'
p174
(S'drab'
p175
g7
tp176
sS'olive drab'
p177
(g14
g175
tp178
sS'brick orange'
p179
(g97
g77
tp180
sS'mustard brown'
p181
(S'mustard'
p182
g15
tp183
sS'navy blue'
p184
(g83
g3
tp185
sS'mustard green'
p186
(g182
g7
tp187
sS'pink-red'
p188
(g34
g38
tp189
sS'red-orange'
p190
(g38
g77
tp191
sS'yellow-brown'
p192
(g26
g15
tp193
sS'blue-green'
p194
(g3
g7
tp195
sS'brown-grey'
p196
(g15
g18
tp197
sS'purple-pink'
p198
(g11
g34
tp199
sS'purple-red'
p200
(g11
g38
tp201
sS'yellow tan'
p202
(g26
g100
tp203
sS'yellow-orange'
p204
(g26
g77
tp205
sS'rust orange'
p206
(g167
g77
tp207
sS'grey green'
p208
(g18
g7
tp209
sS'green-grey'
p210
(g7
g18
tp211
sS'orange-red'
p212
(g77
g38
tp213
sS'rose pink'
p214
(g74
g34
tp215
sS'purple blue'
p216
(g11
g3
tp217
sS'teal blue'
p218
(g114
g3
tp219
sS'seafoam green'
p220
(g62
g7
tp221
sS'mustard yellow'
p222
(g182
g26
tp223
sS'brown yellow'
p224
(g15
g26
tp225
sS'green apple'
p226
(g7
g31
tp227
sS'red-pink'
p228
(g38
g34
tp229
sS'poop brown'
p230
(g141
g15
tp231
sS'ocean green'
p232
(g2
g7
tp233
sS'slate blue'
p234
(g126
g3
tp235
sS'red violet'
p236
(g38
g37
tp237
sS'sea blue'
p238
(g6
g3
tp239
s.