(lp0
(lp1
F29.18352863571
aF5.571040442545
aF6.498428299395
aF29.599128451205
aF6.03485601302
aF5.597022310554999
aF0.3707586867575
aF0.12783743521525
aF0.14260241153945
aF0.3003646072955
aF0.1490614567932
aF0.1352787896531
aF130.10532170835
aF5.9658091095
aF12.128817327645
aF144.516702319
aF13.358951682325
aF6.649921036505
aF2.991077530567
aF0.2605576724627
aF0.794405003968
aF9.740173364395
aF2.112889675623
aF2.35240525078
aF99.61337076585
aF6.071356576715001
aF8.86900236735
aF105.32013799079999
aF10.555641777409999
aF8.808400226105
aF0.952607169021
aF0.23219531198735
aF0.519152869908
aF3.951468637845
aF0.651869726213
aF0.687008052146
aa(lp2
F108.6001582845
aF4.804608013665
aF9.70519944924
aF131.7645185488
aF4.66909460223
aF9.64379439991
aF5.627870496581
aF1.489949944404
aF2.4419181851375
aF6.435019801439499
aF1.1364504417774999
aF1.1856142262999998
aF106.28037666029999
aF7.632631319305
aF10.1029983683
aF116.4739683164
aF9.127455931445
aF6.50437580995
aF6.02959467264
aF0.89684200011965
aF1.522731846796
aF9.47441229607
aF2.359130648665
aF2.4019891648300002
aF87.60868219195001
aF9.52830279416
aF5.823293800725
aF92.08854755215
aF6.569775180260001
aF9.46620163153
aF4.5438799605235
aF0.9722831214105
aF1.3376897581015
aF4.0222477591915
aF1.0159556499925
aF1.4770217271419999
aa(lp3
F91.65721502765
aF4.745190293515
aF7.50934319768
aF104.24471504125
aF3.6469006723449997
aF10.83420931228
aF3.57707035628
aF0.948746097607
aF1.606739119522
aF3.8508038545159997
aF0.850644771112
aF1.5878373747149999
aF97.8880305447
aF7.132945643359999
aF11.448835944315
aF104.3098119069
aF9.41189841886
aF9.85690688187
aF2.74717315367
aF1.2832922904044999
aF2.6410727313005
aF4.40191221818
aF2.089713266465
aF2.563285100375
aF83.7597260165
aF6.7883328260399995
aF8.543812707045
aF87.2679928577
aF5.2568839590300005
aF9.45775652991
aF2.874962270483
aF0.7691818543215
aF1.4712093995825
aF2.492837929968
aF0.6740311246925
aF1.1443830420630001
aa(lp4
F19.850780213070003
aF4.740152246315
aF6.476561743305
aF22.18599702694
aF4.87964411684
aF5.78718482917
aF1.5464744143425
aF0.49621982239900003
aF0.6830959648835
aF1.331061351211
aF0.6597766505654
aF0.8468814850765001
aF129.523917485
aF6.00443066573
aF10.855927733565
aF140.4532669449
aF10.579283692699999
aF11.024935393949999
aF4.20944352968
aF0.32444390271019996
aF1.048990729949
aF7.525035930970001
aF2.00111327575
aF2.149521789455
aF113.55585016715
aF4.963537961895
aF7.429159889975001
aF118.7708356121
aF9.238266011015
aF6.83425064809
aF3.1715241908905
aF1.0889963557936
aF1.006008607389
aF2.89512753169
aF1.571918885213
aF1.600871351112
aa(lp5
F63.9228237998
aF4.56960479925
aF5.719476027055
aF66.0192232037
aF6.111064124045
aF4.866929307215
aF0.9788597729515001
aF0.3971195913391
aF0.37181842108755
aF0.8722364124975
aF0.8314092887541
aF0.56351092141855
aF138.1706698861
aF6.554959101045
aF12.15243575533
aF152.85122736725
aF13.86360681648
aF6.47135646702
aF4.434979955145
aF0.305489178791
aF1.058857787934
aF13.094235541684998
aF1.4500947697289999
aF2.592632974795
aF110.19444761225
aF4.678509487295
aF8.049613296475
aF112.1814904612
aF5.380552926145
aF5.965432006525
aF0.836233065245
aF0.331813861435
aF0.7454323460244999
aF0.7399489691555
aF0.367903240896
aF0.3567723165305
aa(lp6
F341.23081765949996
aF5.99121977257
aF11.056604670625
aF343.0908930365
aF6.361938530825
aF9.99076309761
aF1.9030178424850002
aF0.569775245802
aF1.4068995480335
aF1.9184182561249998
aF0.459997709193
aF0.7960230950935
aF151.186145382
aF4.568841238025
aF19.73315629475
aF156.3285463215
aF18.487072731305
aF13.47961211514
aF7.96744767885
aF0.23229900067275
aF3.5508705714350004
aF9.591802018380001
aF3.1830666953
aF2.271826975345
aF86.1054069271
aF5.81442931799
aF8.66101479299
aF89.8290762342
aF8.39289366246
aF7.945894799135
aF2.702928904891
aF0.40567600766899997
aF0.747213733253
aF3.7287573000460004
aF1.491304539681
aF1.587016622809
aa(lp7
F109.2954837103
aF5.046244289235
aF7.48233183914
aF111.3107594468
aF6.75121863669
aF5.73699127458
aF0.972692456319
aF0.427285769114
aF0.4853683426405
aF0.9069801590515
aF0.8776553210745
aF0.605385555449
aF151.3993515502
aF6.356725244675001
aF13.28811551844
aF162.711322811
aF11.194385308265
aF7.14707309092
aF6.01891238418
aF0.21956089859765
aF1.525918226814
aF13.720029505949999
aF1.936631817735
aF2.44315347679
aF120.46215487445
aF4.234496152789999
aF8.871371938045
aF122.36292180965
aF5.4103767209299995
aF7.44315212697
aF0.7086666961954999
aF0.3984863803655
aF0.9759858698335
aF0.5902116950645
aF0.47180008962250003
aF0.682429736762
aa(lp8
F54.6026040127
aF5.711078692675
aF5.1469051658
aF56.22507214645
aF5.342049748275
aF5.2791962333299995
aF0.48599619483050005
aF0.17294194122950002
aF0.16075408992114998
aF0.6951762007925
aF0.2505587786213
aF0.298361242982
aF140.4050813412
aF4.30555541295
aF13.432054479729999
aF152.23663026050002
aF12.373847576075
aF7.452160030575
aF1.9156889761399998
aF0.15788782785990002
aF0.8091515329825
aF8.16362344146
aF1.60274244493
aF2.07442505862
aF145.7571099388
aF3.8741344597299996
aF7.32326738393
aF154.328557469
aF13.024544171639999
aF6.968797098225
aF0.7445783477565
aF0.09520499685935
aF0.3825989095865
aF4.638129585005
aF2.973651119765
aF2.6231204475200003
aa(lp9
F11.885490468270001
aF5.271372122785
aF5.642695168175
aF12.70428923961
aF5.75472740016
aF4.56763861997
aF0.3394497249435
aF0.1399612423481
aF0.1480621358742
aF0.40700577160999996
aF0.1513157375724
aF0.13137658467750002
aF145.64060138960002
aF3.8484370498800002
aF11.856147703235
aF156.5317472065
aF9.95975259501
aF5.50951896797
aF1.2761221443639998
aF0.1276694094126
aF0.6374727725
aF7.421096857629999
aF3.2213677275999997
aF1.858876483075
aF138.13410760655
aF5.105559538385
aF8.911560509045
aF150.9695931985
aF16.439923020265
aF11.543418376790001
aF1.3450250248805
aF0.1181574574063
aF0.449342742143
aF8.324614254590001
aF1.917353172424
aF2.111898895345
aa(lp10
F74.2335860255
aF5.63253243972
aF5.695264083335
aF75.5453131881
aF4.323958007845
aF5.859026496745
aF0.4442682568445
aF0.1657944376021
aF0.13823784939285
aF0.6221438228264999
aF0.3514182303421
aF0.40921471658555003
aF133.69178224479998
aF5.719282997655
aF13.89923231058
aF149.10222800825
aF12.50121216621
aF8.29357710476
aF2.815453388585
aF0.237942757981
aF1.109283591284
aF10.870402664484999
aF1.7364077125089998
aF2.3686982534050003
aF124.87126027095
aF4.711519082065
aF6.471005487905
aF134.68874493689998
aF9.945291959175
aF4.724654477555
aF0.503200056964
aF0.1878955161973
aF0.3293514695525
aF4.0764108410225
aF1.9610301183430001
aF1.2968087565205
aa(lp11
F288.598879185
aF7.126406163035
aF11.783708080850001
aF288.8285815445
aF7.63206058347
aF8.465637055190001
aF1.9064142034509999
aF0.277937589162
aF0.9326438515644999
aF1.8396407204495
aF0.2815689354175
aF0.292448527829
aF154.90032813050001
aF5.101487398235
aF17.47765407055
aF160.078549552
aF10.410448122295
aF14.04560671327
aF7.21011373716
aF0.07213598974415
aF2.4681212335250002
aF9.35302279855
aF2.0385887127349998
aF1.85099770269
aF138.34976506235
aF6.00164269746
aF12.202845517915001
aF144.42173829135
aF12.63579174644
aF6.87536619768
aF3.8954914126435
aF0.3146070930275
aF1.1568456668965
aF5.9393315047715
aF2.6624254831195002
aF2.399564392062
aa(lp12
F100.0795858215
aF9.06987922848
aF10.45166384368
aF100.53003087280001
aF6.30102342995
aF17.41501284053
aF2.027993133617
aF0.3151208407942
aF0.2668460269221
aF1.9320572809360002
aF0.7961135241842
aF4.2481423041641
aF85.8116881755
aF6.66573438003
aF9.34910658821
aF97.05073833005001
aF11.979379637474999
aF7.9750739061800004
aF3.021919377238
aF0.393126575769
aF0.8108834535180001
aF7.417479934099
aF0.77217628999235
aF1.8401243896785
aF86.8887271346
aF6.1369061158800005
aF9.23670163057
aF87.35074384365
aF6.932479341584999
aF7.068079674270001
aF0.6636102048915
aF0.33802202431899997
aF0.7357882924135
aF0.71650394713
aF0.312907883803
aF0.2332085207945
aa(lp13
F-92.64453663729999
aF7.69285624326
aF7.932658896725
aF-92.43857930315001
aF4.516014559169999
aF16.10395451477
aF0.6772161995304999
aF0.2179055741077
aF0.3107578434957
aF0.69421971388
aF0.429870059582
aF2.6328938714459498
aF118.5000081225
aF6.5688203266750005
aF13.361758687490001
aF122.494860252
aF10.826960252914999
aF11.09007274812
aF4.0089028032925
aF0.2402675120184
aF1.1156164816775
aF4.6860385395940005
aF1.5508144298195
aF2.0323861240500003
aF119.7667417859
aF4.71093129955
aF10.42138802953
aF121.8804065304
aF7.747480890745001
aF10.479362506255
aF0.306078837964
aF0.2530239025028
aF0.6226281906560001
aF1.1639996744780001
aF1.8056591636360002
aF2.1021512181575
aa(lp14
F-77.55594382419
aF6.966949564305
aF6.712623343175
aF-77.266493056395
aF3.9248909198799997
aF15.014689525525
aF0.5456502077955
aF0.11491674079424999
aF0.09577845498405
aF0.5619591687645
aF0.404496850145
aF2.629670813664
aF138.76348762825
aF5.54675744076
aF13.948962201765001
aF146.4627769752
aF11.344428228495
aF7.890399700255
aF4.294131475277
aF0.1338527469316
aF1.106269839231
aF7.206587171845
aF2.605505189645
aF1.8715725139200001
aF116.39563509684999
aF5.778348009855
aF9.62213245307
aF121.96314813890001
aF10.572938967230002
aF13.279702864295
aF0.62722982144
aF0.29125514051935
aF0.601714476171
aF3.606191279458
aF1.1769670694580001
aF2.256316862895
aa(lp15
F79.68667467935
aF5.47313491366
aF5.4807132671800005
aF81.07566327565
aF3.834744309055
aF6.16714037196
aF0.5148325833265
aF0.3372365872495
aF0.4048367079303
aF0.759063615515
aF0.45067205587400005
aF0.600336586862
aF117.69249622884999
aF5.391032903005
aF12.70110848699
aF128.28808500925
aF8.629466967155
aF9.81977965783
aF1.9326127798305
aF0.3170164137945
aF1.202452348808
aF7.6865331715575
aF1.580740520712
aF2.082823368455
aF138.36281153595002
aF4.344085212115
aF5.78989454616
aF148.20070865115
aF9.509364701175
aF4.831721805835
aF0.486988975555
aF0.2708737534528
aF0.438426739832
aF4.0550548658445
aF1.953192238873
aF1.3740769138459998
aa(lp16
F122.81486234100001
aF6.348926987085
aF8.66301498101
aF126.5662578674
aF6.26604781309
aF7.03881651261
aF1.611430039271
aF0.743282916311
aF0.8800822051335
aF1.5142968814395001
aF1.1702121811275
aF1.31843454037
aF152.6765969302
aF5.969083147535001
aF16.222925111549998
aF157.391516529
aF8.690160914055
aF9.02192811346
aF10.65027142943
aF0.43576997638465
aF3.1495962707550005
aF12.71893637006
aF1.924941523805
aF2.64387150151
aF112.35850907515001
aF4.62127714461
aF10.827887536905
aF116.04555548985
aF4.79194388432
aF10.82957982435
aF2.0446042217635
aF0.5841798311325
aF1.5584398699464999
aF2.8728083405815
aF1.2922720829595
aF2.915154297822
aa(lp17
F26.48671995915
aF4.508094210115
aF6.108236665085
aF30.2809494849
aF3.63036537395
aF7.78276693554
aF1.6132242776825
aF0.42580506684900005
aF1.0660050705035
aF1.370244782831
aF0.6197675126574
aF1.8063580623595
aF141.5520306491
aF4.9703778611
aF12.740391846185
aF150.19332918679999
aF8.25083039135
aF9.64849588992
aF5.40119415464
aF0.31704435170719997
aF1.6037766421239998
aF8.52776562414
aF1.278622138023
aF1.861482631895
aF117.76599705865002
aF4.227729760395
aF9.216830965235
aF123.0512465086
aF8.153177650715
aF6.89654872405
aF1.7755020590805
aF0.6963417363806
aF1.6322212794670001
aF2.79058448926
aF1.4943054305130001
aF1.6112149710950001
aa(lp18
F201.352253711
aF12.761905947975
aF15.863145105300001
aF201.7754576375
aF6.9181853741
aF29.45908965353
aF3.622620005181
aF0.531819067926
aF0.5008737595435
aF3.5902378382895
aF1.4910874744975
aF8.38931289278
aF63.7723483059
aF6.088324402745
aF7.31972804811
aF66.8860396561
aF5.433720553835
aF9.07145736095
aF3.659759937356
aF0.37000154338665
aF1.225953662631
aF4.721985091848
aF0.9335448936037
aF0.8979916937970001
aF101.84246246995
aF5.59272603774
aF10.598900666195
aF102.35269880905
aF6.93693477349
aF8.91258586487
aF0.5543112624945
aF0.46522713880949995
aF1.1437904405735
aF0.5806425374915
aF0.4233491680935
aF0.592494266959
aa(lp19
F190.8249056425
aF10.023158208449999
aF13.97737546785
aF191.113103359
aF7.58133245524
aF19.15513677526
aF2.015658500352
aF0.375453196344
aF0.49394587002799994
aF2.001544774044
aF0.888605588825
aF4.331891572225
aF112.26905150370001
aF6.26926666729
aF11.62046611443
aF116.77092921755
aF6.640936621045
aF9.32650715398
aF6.189784235308
aF0.22127001538229998
aF1.7450043312780001
aF8.669067862629
aF1.74525038600435
aF1.5411653936685001
aF107.424141659
aF5.24887944687
aF10.88021891371
aF107.71360654055
aF6.992126931155001
aF10.02351991516
aF0.40847746679249997
aF0.47136706218
aF1.1968953400314999
aF0.41702939894799995
aF0.520701581256
aF0.8845233612575
aa(lp20
F24.57955071441
aF5.538606915875
aF5.396182226455
aF25.763473828005
aF6.05291875815
aF4.826206298065
aF0.4210212804555
aF0.15358776192505
aF0.16105346883735
aF0.5301586616064999
aF0.15021831714779998
aF0.15460949955300002
aF143.12465707255
aF3.8892677731500003
aF12.354173206375
aF153.66445235150002
aF11.554284568845
aF6.178088977045
aF1.5150341893369998
aF0.1343124573531
aF0.617477899666
aF7.099211103305
aF2.298755897105
aF1.9260923889200001
aF141.83350103845
aF4.4711950656549995
aF8.60863638907
aF151.039212878
aF15.128616117229999
aF10.064223283495
aF1.122914099176
aF0.09470783636855
aF0.457906210687
aF6.200078761
aF2.491824062687
aF2.561934023975
aa(lp21
F-31.1079432941
aF5.68623902084
aF8.006282431175
aF-29.40144605925
aF5.9123492330600005
aF8.02046098334
aF1.0402091128955
aF0.45184325835850003
aF0.6692460693010001
aF1.3366899993299999
aF0.521990981461
aF0.98434195571895
aF83.5762839335
aF7.869481928765
aF7.759131408550001
aF84.9387220477
aF4.374090353934999
aF18.31032766263
aF1.0943978723525
aF0.8656849314225
aF0.9204509709475001
aF0.93293711761
aF0.6531659853895
aF2.89245777949
aF135.1177085692
aF4.90184062707
aF8.04515198538
aF138.0945483918
aF6.348014187405
aF8.185033244405
aF1.4638176612390001
aF0.4148933560988
aF0.46224722912099997
aF2.23301118464
aF1.8257957926850001
aF1.9457797113075
aa(lp22
F36.963426098599996
aF7.648038457769999
aF8.626140375235
aF37.190971318699994
aF4.5479959414949995
aF16.33595375633
aF1.34478175379
aF0.17525940699120002
aF0.4359071163772
aF1.318353283485
aF0.44678964799599996
aF2.6941021456995
aF140.0338440077
aF5.753264209035001
aF16.24821447355
aF145.5930679342
aF12.453219967875
aF11.70262724609
aF6.100150221850001
aF0.11748887341665
aF1.743832074228
aF7.1994125949
aF1.81731371358
aF1.8357946572650001
aF121.92464276179999
aF6.048355878880001
aF10.79180414215
aF125.0282737329
aF9.79920501788
aF10.520772478865
aF2.008822932385
aF0.32177182996
aF0.8248775118380001
aF3.050571072383
aF1.9575433845610002
aF2.706052394095
aa(lp23
F284.5187145805
aF6.603595853830001
aF8.269785839035
aF284.8863087685
aF5.743121187175
aF8.98952922146
aF1.159777006535
aF0.49288674717500003
aF0.7869471024835
aF1.133501802056
aF0.372069503207
aF0.7628188884515
aF150.3562504593
aF6.184351030645
aF17.738276168749998
aF155.3753199735
aF11.539544528635
aF16.927512628400002
aF9.612858682279999
aF0.17460175721675
aF2.451045558985
aF11.246787206090001
aF1.75356281833
aF2.0421288397649997
aF126.07077793369999
aF6.23306865124
aF10.80336441439
aF129.5816562557
aF9.01453953453
aF16.479488116465
aF2.83984238154
aF0.376097649654
aF1.007185642838
aF3.9131968215370003
aF2.40043706517
aF5.542078257095
aa(lp24
F209.436809302
aF4.315400760225
aF14.6614793619
aF213.7424220045
aF6.742906333500001
aF7.45860204435
aF2.315166304501
aF0.582672752291
aF2.1591432452075
aF1.3157791431295
aF0.6682699387694999
aF0.747041705911
aF96.95547375730001
aF4.778531038385
aF14.41730707476
aF100.1975462451
aF6.1055230786950005
aF18.42329812717
aF5.126778005969999
aF0.83478754819165
aF2.7342069811350003
aF6.762996444680001
aF1.576726141562
aF4.7971965304
aF136.49373938355
aF4.0929659979699995
aF13.084782250135
aF145.70728146335
aF7.91508790784
aF9.44361770096
aF0.9587934030774999
aF0.36287472248749997
aF1.3126021720355
aF3.0264052097415
aF2.1127766712594998
aF1.384245692738
aa(lp25
F78.9498278913
aF4.458625019625
aF5.16558887165
aF81.50380962215
aF5.111035128745
aF4.67594355814
aF0.9873944286635
aF0.41572241442150004
aF0.36775323785715
aF1.0289980888425
aF0.9334256008295
aF0.6936951049219999
aF144.4767061539
aF5.892145349400001
aF12.844969464910001
aF158.8645751475
aF12.186304293135
aF6.840941481745
aF3.85870102636
aF0.2592988938025
aF1.1820627419335
aF13.16005250362
aF1.7696262587899998
aF2.46059330772
aF131.528728217
aF3.91573259857
aF6.93698542217
aF138.2607528163
aF6.8742750535
aF4.977112443245
aF0.7651617046075
aF0.28701690515415
aF0.6309382467694999
aF2.426840348328
aF1.195236575948
aF0.9053865973599999
aa(lp26
F59.206581934
aF5.743512219345
aF6.24915123874
aF60.06072676965
aF5.323987003145
aF6.05001224582
aF0.43573360113250004
aF0.1471916145197
aF0.14230303262325
aF0.4653821464815
aF0.2494019182667
aF0.2790305330821
aF127.385745977
aF6.3820967493000005
aF13.206698601
aF143.088880228
aF14.178514689555
aF7.923992090035
aF3.39173231737
aF0.2841330429695
aF0.9860786372845001
aF10.80458570255
aF1.416876223448
aF2.5007379204799998
aF103.53697966620001
aF5.47429597079
aF7.5836333622100005
aF108.6094825818
aF8.451569831819999
aF5.712974040835
aF0.5742714176015
aF0.23269247247815
aF0.4438455688075
aF2.38951946185
aF1.133696783291
aF0.748194475691
aa(lp27
F160.7396254533
aF6.507424328695
aF10.420233802285
aF166.27283578025
aF7.13889761246
aF10.655384412625
aF4.076901171547
aF1.293768473473
aF1.26002257669
aF2.126405603139
aF0.706278209225
aF0.8715148569750001
aF144.31319059615
aF5.907413047485001
aF13.226266123235
aF152.5858456323
aF8.83219332995
aF8.168399781695
aF7.265667592615
aF0.4583130315918
aF2.1162662669800003
aF11.562337757755
aF2.32515785517
aF2.081334138455
aF117.1424916881
aF4.331250406185
aF10.952646237105
aF118.68927932965
aF9.19771009586
aF8.81277046123
aF1.274304430577
aF0.591682647363
aF1.3197895267314999
aF1.371536615603
aF1.247219415044
aF1.199698350333
aa(lp28
F-15.897162590979999
aF5.73004400865
aF7.109243663445
aF-15.526981595539999
aF6.04765968146
aF5.39833593112
aF0.3894441611665
aF0.22932355608459998
aF0.3500501914227
aF0.416113426729
aF0.177786367434
aF0.11136672758395
aF127.89306620090001
aF4.829669212525
aF10.77091868582
aF135.4311253383
aF7.8477526455949995
aF8.04062200676
aF0.7519814274065
aF0.22744112655889998
aF0.6668142877805
aF5.222433979704
aF3.0892887982695
aF1.95247418736
aF137.80582086369998
aF4.67250730081
aF10.01374020548
aF150.8172319105
aF14.925771846815001
aF10.222273112045
aF1.245984967109
aF0.1033758404275
aF0.461692988084
aF8.0069581432
aF1.9715743763390001
aF1.5076981219775
aa(lp29
F62.539133692
aF5.60739028684
aF7.891506622055
aF64.562683523
aF5.059652637795
aF5.679959281115
aF5.7639050245135
aF0.7787918348120999
aF0.90738518350455
aF5.1990185793255
aF2.1155980934871
aF0.83024893379955
aF123.6557848173
aF4.483719217465
aF16.416654885139998
aF132.78432545524998
aF13.41211647146
aF8.90118047608
aF4.784961339095
aF0.570181757295
aF3.359783623405
aF7.041512210825
aF2.265873594539
aF2.602167115345
aF89.62002261605
aF7.657102759215
aF7.169933909955
aF93.0256453589
aF4.865966219384999
aF7.954438275355
aF1.927013716323
aF0.694591797091
aF0.8073229251035
aF2.4848487235125
aF1.109426429763
aF1.9196920893805
aa(lp30
F250.949257543
aF6.3654390933150005
aF10.77540039508
aF254.9267030195
aF5.42318110768
aF9.350176050209999
aF2.682172696031
aF0.969875056129
aF1.2391282352075
aF2.9288355867795
aF0.8442949509015
aF1.4252607442799998
aF136.5432750471
aF4.382196229755
aF14.81958352932
aF146.3005538947
aF8.514059651305
aF8.664664754
aF11.24705401278
aF0.6174051432326499
aF3.540726154065
aF9.434053117960001
aF1.851898707745
aF2.79634651014
aF109.71725822355
aF5.45842409404
aF12.203119092645
aF113.81957049575
aF6.20546638898
aF11.885059755390001
aF4.0219762272435
aF1.5229791049835
aF3.2570949590865
aF3.2709913809415
aF0.8824602916535
aF1.1444514783520001
aa(lp31
F313.4793842735
aF5.27054728388
aF14.730458800525
aF315.63690598150004
aF5.200010794515
aF15.05454955083
aF7.294625565684999
aF0.525956734882
aF3.8978905956635
aF7.621075872395
aF1.028913185214
aF1.8486848238895002
aF72.28338790320001
aF6.1596922937850005
aF9.005746228229999
aF75.22292623039999
aF7.515474229165
aF11.47253741712
aF4.3016995591
aF1.2395434227657498
aF1.996284537705
aF4.63798677371
aF1.0516874656669999
aF1.743601821565
aF105.0287039865
aF5.69314857683
aF10.94148294138
aF110.18967053770001
aF9.387322557680001
aF7.531418823035
aF4.84379265467
aF0.980044118605
aF1.57378958701
aF6.0383636513950005
aF1.849503862009
aF1.9035348185649998
aa(lp32
F-44.28578757428
aF5.63851860958
aF6.2592573031050005
aF-43.62416714279
aF5.40647740022
aF7.820223302075
aF1.055926133771
aF0.2880323322936
aF0.23896068620170002
aF1.022250802764
aF0.211826182316
aF0.5105171388055
aF147.67658677945002
aF4.895578532335
aF13.41440917523
aF157.0684712795
aF8.469815511405
aF8.40719165453
aF5.672126463579
aF0.24094721250040002
aF1.361585873686
aF10.69354499027
aF4.087736711934999
aF1.80383910499
aF135.7861663287
aF5.503612884415
aF12.02072928933
aF150.8741835275
aF14.378381464310001
aF13.41926076659
aF2.8968951973349997
aF0.1447365038027
aF1.083072903421
aF10.000010332655
aF1.974799932744
aF1.6932131375300001
aa(lp33
F283.0237419565
aF6.786468653230001
aF11.048954733745001
aF287.9534621945
aF6.033181879395
aF14.55039782283
aF6.226724393645
aF1.1597019194640001
aF1.4012249816535
aF4.392133301525
aF1.39849235202
aF3.5853905521595
aF111.936704145
aF4.879004915865
aF12.320156589709999
aF125.0820475234
aF11.789636663105
aF12.45505357573
aF5.05983754046
aF0.72618343422375
aF2.110607308605
aF8.110907604409999
aF1.66045180592
aF2.1282937292849997
aF130.70359304549999
aF5.71381882167
aF10.918194148600001
aF138.8175757781
aF11.39101221213
aF12.934470118965
aF6.33084079657
aF1.240874481532
aF2.63721970781
aF6.815892703105
aF2.33581078479
aF2.771820161285
aa.