(lp0
(F0.3843389820243195
F1.2328882191692014
tp1
a(F1.3911009943351722
F1.3669951387794754
tp2
a(F0.6902767503195315
F1.0497594513933308
tp3
a(F0.5316966484632858
F0.9681508854172929
tp4
a(F1.4122884388822967
F2.102829087998452
tp5
a(F1.1243536564513321
F3.482194188558098
tp6
a(F1.908527732340747
F2.6074907731416364
tp7
a(F0.2275419762625877
F1.070070281656501
tp8
a(F0.5519864424488874
F0.8295077913111663
tp9
a(F0.18737228229665207
F2.0210278432154403
tp10
a(F0.12168983875243508
F3.0410385915601017
tp11
a(F0.39464969936349825
F2.9502533004184706
tp12
a(F1.1220701605791876
F0.7837579756059445
tp13
a(F7.402970852368471
F2.187889882188047
tp14
a(F0.3412449202461755
F1.5486753012494698
tp15
a(F0.09334161229126864
F1.6012791909846817
tp16
a(F0.2960850916026725
F0.9069941539024806
tp17
a(F0.37213723128774256
F1.665435543681417
tp18
a(F0.44575672237700686
F2.148851206056505
tp19
a(F0.5092940804553983
F0.9274867250541327
tp20
a(F0.12133729190185472
F0.737699825853513
tp21
a(F30.52554624331046
F6.409902533376392
tp22
a(F2.5513455763772384
F4.4406323448032445
tp23
a(F0.5238728206462795
F1.6882639858291666
tp24
a(F0.48254763286516766
F1.7739054558991496
tp25
a(F0.5656169703719003
F1.3270210159597433
tp26
a(F1.1317222813841823
F1.5107322784937387
tp27
a(F0.08722336802022514
F0.7998552513802076
tp28
a(F0.1880620208425546
F1.2728122154020614
tp29
a(F0.898191440821835
F2.893458440923681
tp30
a(F0.9900628844313039
F2.6681269884840244
tp31
a(F20.6429489715841
F0.3955067307375122
tp32
a(F0.09785081084348177
F2.068509717693516
tp33
a.