(lp0
(S'flesh'
p1
(lp2
S'flesh pink'
p3
atp4
a(S'sage'
p5
(lp6
S'sage green'
p7
atp8
a(S'cobalt'
p9
(lp10
S'cobalt blue'
p11
atp12
a(S'pine'
p13
(lp14
S'pine green'
p15
atp16
a(S'grape'
p17
(lp18
S'grape purple'
p19
atp20
a(S'sunflower'
p21
(lp22
S'sunflower yellow'
p23
atp24
a(S'sky'
p25
(lp26
S'sky blue'
p27
atp28
a(S'celery'
p29
(lp30
S'celery green'
p31
atp32
a(S'pumpkin'
p33
(lp34
S'pumpkin orange'
p35
atp36
a(S'cornflower'
p37
(lp38
S'cornflower blue'
p39
atp40
a(S'ultramarine'
p41
(lp42
S'ultramarine blue'
p43
atp44
a(S'vomit'
p45
(lp46
S'vomit green'
p47
aS'vomit yellow'
p48
atp49
a(S'canary'
p50
(lp51
S'canary yellow'
p52
atp53
a(S'emerald'
p54
(lp55
S'emerald green'
p56
atp57
a(S'pea soup'
p58
(lp59
S'pea soup green'
p60
atp61
a(S'clay'
p62
(lp63
S'clay brown'
p64
atp65
a(S'seaweed'
p66
(lp67
S'seaweed green'
p68
atp69
a(S'jade'
p70
(lp71
S'jade green'
p72
atp73
a(S'barf'
p74
(lp75
S'barf green'
p76
atp77
a(S'gross'
p78
(lp79
S'gross green'
p80
atp81
a(S'lipstick'
p82
(lp83
S'lipstick red'
p84
atp85
a(S'ice'
p86
(lp87
S'ice blue'
p88
atp89
a(S'mud'
p90
(lp91
S'mud brown'
p92
atp93
a(S'khaki'
p94
(lp95
S'khaki green'
p96
atp97
a(S'dirt'
p98
(lp99
S'dirt brown'
p100
atp101
a(S'ochre'
p102
(lp103
S'yellow ochre'
p104
atp105
a(S'algae'
p106
(lp107
S'algae green'
p108
atp109
a(S'coral'
p110
(lp111
S'coral pink'
p112
atp113
a(S'baby poop'
p114
(lp115
S'baby poop green'
p116
atp117
a(S'cherry'
p118
(lp119
S'cherry red'
p120
atp121
a(S'avocado'
p122
(lp123
S'avocado green'
p124
atp125
a(S'denim'
p126
(lp127
S'denim blue'
p128
atp129
a(S'fern'
p130
(lp131
S'fern green'
p132
atp133
a(S'bubblegum'
p134
(lp135
S'bubblegum pink'
p136
atp137
a(S'marine'
p138
(lp139
S'marine blue'
p140
atp141
a(S'periwinkle'
p142
(lp143
S'periwinkle blue'
p144
atp145
a(S'banana'
p146
(lp147
S'banana yellow'
p148
atp149
a(S'kiwi'
p150
(lp151
S'kiwi green'
p152
atp153
a(S'tomato'
p154
(lp155
S'tomato red'
p156
atp157
a(S'olive'
p158
(lp159
S'olive green'
p160
aS'olive brown'
p161
atp162
a(S'cerulean'
p163
(lp164
S'cerulean blue'
p165
atp166
a(S'grass'
p167
(lp168
S'grass green'
p169
atp170
a(S'plum'
p171
(lp172
S'plum purple'
p173
atp174
a(S'shamrock'
p175
(lp176
S'shamrock green'
p177
atp178
a(S'barney'
p179
(lp180
S'barney purple'
p181
atp182
a(S'eggshell'
p183
(lp184
S'eggshell blue'
p185
atp186
a(S'snot'
p187
(lp188
S'snot green'
p189
atp190
a(S'forest'
p191
(lp192
S'forest green'
p193
atp194
a(S'carnation'
p195
(lp196
S'carnation pink'
p197
atp198
a(S"robin's egg"
p199
(lp200
S"robin's egg blue"
p201
atp202
a(S'salmon'
p203
(lp204
S'salmon pink'
p205
atp206
a(S'blood'
p207
(lp208
S'blood red'
p209
atp210
a(S'moss'
p211
(lp212
S'moss green'
p213
atp214
a(S'butter'
p215
(lp216
S'butter yellow'
p217
atp218
a(S'wine'
p219
(lp220
S'wine red'
p221
atp222
a(S'rose'
p223
(lp224
S'rose red'
p225
aS'rose pink'
p226
atp227
a(S'seafoam'
p228
(lp229
S'seafoam blue'
p230
aS'seafoam green'
p231
atp232
a(S'sand'
p233
(lp234
S'sandy yellow'
p235
aS'sandy brown'
p236
atp237
a(S'sea'
p238
(lp239
S'sea blue'
p240
aS'sea green'
p241
atp242
a(S'navy'
p243
(lp244
S'navy green'
p245
aS'navy blue'
p246
atp247
a(S'sandy'
p248
(lp249
g235
ag236
atp250
a(S'leaf'
p251
(lp252
S'leaf green'
p253
atp254
a(S'apple'
p255
(lp256
S'apple green'
p257
aS'green apple'
p258
atp259
a(S'brick'
p260
(lp261
S'brick orange'
p262
aS'brick red'
p263
atp264
a(S'chocolate'
p265
(lp266
S'chocolate brown'
p267
atp268
a(S'steel'
p269
(lp270
S'steel blue'
p271
aS'steel grey'
p272
atp273
a(S'mint'
p274
(lp275
S'mint green'
p276
atp277
a(S'shit'
p278
(lp279
S'shit brown'
p280
aS'shit green'
p281
atp282
a(S'lemon'
p283
(lp284
S'lemon lime'
p285
aS'lemon yellow'
p286
atp287
a(S'poop'
p288
(lp289
S'poop brown'
p290
aS'poop green'
p291
atp292
a(S'ocean'
p293
(lp294
S'ocean blue'
p295
aS'ocean green'
p296
atp297
a(S'pea'
p298
(lp299
S'pea green'
p300
atp301
a(S'puke'
p302
(lp303
S'puke green'
p304
aS'puke yellow'
p305
aS'puke brown'
p306
atp307
a(S'rust'
p308
(lp309
S'rust red'
p310
aS'rust orange'
p311
atp312
a(S'mustard'
p313
(lp314
S'mustard brown'
p315
aS'mustard green'
p316
aS'mustard yellow'
p317
atp318
a(S'lime'
p319
(lp320
g285
aS'lime yellow'
p321
aS'key lime'
p322
aS'lime green'
p323
atp324
a.