(lp0
(lp1
S'yellow'
p2
aS'yellow ochre'
p3
aa(lp4
g2
aS'vomit yellow'
p5
aa(lp6
g2
aS'sunshine yellow'
p7
aa(lp8
g2
aS'pastel yellow'
p9
aa(lp10
g2
aS'puke yellow'
p11
aa(lp12
g2
aS'sandy yellow'
p13
aa(lp14
g2
aS'canary yellow'
p15
aa(lp16
g2
aS'butter yellow'
p17
aa(lp18
g2
aS'piss yellow'
p19
aa(lp20
g2
aS'banana yellow'
p21
aa(lp22
g2
aS'lemon yellow'
p23
aa(lp24
g2
aS'sunflower yellow'
p25
aa(lp26
g2
aS'mustard yellow'
p27
aa(lp28
S'cobalt'
p29
aS'cobalt blue'
p30
aa(lp31
S'brown'
p32
aS'clay brown'
p33
aa(lp34
g32
aS'mud brown'
p35
aa(lp36
g32
aS'poop brown'
p37
aa(lp38
g32
aS'chocolate brown'
p39
aa(lp40
g32
aS'puke brown'
p41
aa(lp42
g32
aS'shit brown'
p43
aa(lp44
g32
aS'mustard brown'
p45
aa(lp46
g32
aS'dirt brown'
p47
aa(lp48
g32
aS'olive brown'
p49
aa(lp50
g32
aS'muddy brown'
p51
aa(lp52
g32
aS'sandy brown'
p53
aa(lp54
S'grey'
p55
aS'battleship grey'
p56
aa(lp57
g55
aS'slate grey'
p58
aa(lp59
g55
aS'steel grey'
p60
aa(lp61
S'sand'
p62
ag13
aa(lp63
g62
ag53
aa(lp64
S'blue'
p65
aS'peacock blue'
p66
aa(lp67
g65
aS'prussian blue'
p68
aa(lp69
g65
aS'seafoam blue'
p70
aa(lp71
g65
aS'baby blue'
p72
aa(lp73
g65
aS'dodger blue'
p74
aa(lp75
g65
aS'cerulean blue'
p76
aa(lp77
g65
aS'ice blue'
p78
aa(lp79
g65
aS'navy blue'
p80
aa(lp81
g65
aS'cadet blue'
p82
aa(lp83
g65
aS"robin's egg blue"
p84
aa(lp85
g65
aS'steel blue'
p86
aa(lp87
g65
aS'marine blue'
p88
aa(lp89
g65
aS'sky blue'
p90
aa(lp91
g65
aS'cornflower blue'
p92
aa(lp93
g65
aS'dusk blue'
p94
aa(lp95
g65
aS'pastel blue'
p96
aa(lp97
g65
aS'periwinkle blue'
p98
aa(lp99
g65
aS'sea blue'
p100
aa(lp101
g65
aS'denim blue'
p102
aa(lp103
g65
aS'duck egg blue'
p104
aa(lp105
g65
ag30
aa(lp106
g65
aS'powder blue'
p107
aa(lp108
g65
aS'ocean blue'
p109
aa(lp110
g65
aS'aqua blue'
p111
aa(lp112
g65
aS'eggshell blue'
p113
aa(lp114
g65
aS'ultramarine blue'
p115
aa(lp116
g65
aS'turquoise blue'
p117
aa(lp118
g65
aS'slate blue'
p119
aa(lp120
S'dirt'
p121
ag47
aa(lp122
S'seafoam'
p123
ag70
aa(lp124
g123
aS'seafoam green'
p125
aa(lp126
S'lime'
p127
aS'lemon lime'
p128
aa(lp129
g127
aS'lime yellow'
p130
aa(lp131
g127
aS'key lime'
p132
aa(lp133
g127
aS'lime green'
p134
aa(lp135
S'celery'
p136
aS'celery green'
p137
aa(lp138
S'puke'
p139
aS'puke green'
p140
aa(lp141
g139
ag11
aa(lp142
g139
ag41
aa(lp143
S'algae'
p144
aS'algae green'
p145
aa(lp146
S'chocolate'
p147
ag39
aa(lp148
g147
aS'milk chocolate'
p149
aa(lp150
S'olive'
p151
aS'olive green'
p152
aa(lp153
S'coral'
p154
aS'coral pink'
p155
aa(lp156
S'grape'
p157
aS'grape purple'
p158
aa(lp159
S'pink'
p160
aS'pastel pink'
p161
aa(lp162
g160
aS'barbie pink'
p163
aa(lp164
g160
aS'bubblegum pink'
p165
aa(lp166
g160
aS'pinkish'
p167
aa(lp168
g160
aS'flesh pink'
p169
aa(lp170
g160
aS'salmon pink'
p171
aa(lp172
g160
aS'rosy pink'
p173
aa(lp174
g160
ag155
aa(lp175
g160
aS'rose pink'
p176
aa(lp177
S'pine'
p178
aS'pine green'
p179
aa(lp180
S'blood'
p181
aS'blood red'
p182
aa(lp183
S'tomato'
p184
aS'tomato red'
p185
aa(lp186
S'green'
p187
aS'camouflage green'
p188
aa(lp189
g187
aS'minty green'
p190
aa(lp191
g187
aS'apple green'
p192
aa(lp193
g187
aS'vomit green'
p194
aa(lp195
g187
aS'sage green'
p196
aa(lp197
g187
aS'greyish green'
p198
aa(lp199
g187
aS'navy green'
p200
aa(lp201
g187
aS'sick green'
p202
aa(lp203
g187
aS'acid green'
p204
aa(lp205
g187
aS'leafy green'
p206
aa(lp207
g187
aS'booger green'
p208
aa(lp209
g187
ag179
aa(lp210
g187
aS'grassy green'
p211
aa(lp212
g187
aS'barf green'
p213
aa(lp214
g187
ag125
aa(lp215
g187
aS'kiwi green'
p216
aa(lp217
g187
aS'khaki green'
p218
aa(lp219
g187
aS'poop green'
p220
aa(lp221
g187
aS'emerald green'
p222
aa(lp223
g187
ag137
aa(lp224
g187
aS'jade green'
p225
aa(lp226
g187
aS'pea soup green'
p227
aa(lp228
g187
aS'pastel green'
p229
aa(lp230
g187
ag140
aa(lp231
g187
aS'camo green'
p232
aa(lp233
g187
aS'snot green'
p234
aa(lp235
g187
aS'forest green'
p236
aa(lp237
g187
aS'pea green'
p238
aa(lp239
g187
aS'tea green'
p240
aa(lp241
g187
aS'baby puke green'
p242
aa(lp243
g187
aS'baby poop green'
p244
aa(lp245
g187
aS'lawn green'
p246
aa(lp247
g187
aS'turtle green'
p248
aa(lp249
g187
aS'moss green'
p250
aa(lp251
g187
aS'kermit green'
p252
aa(lp253
g187
aS'foam green'
p254
aa(lp255
g187
aS'avocado green'
p256
aa(lp257
g187
aS'baby shit green'
p258
aa(lp259
g187
aS'frog green'
p260
aa(lp261
g187
aS'sickly green'
p262
aa(lp263
g187
aS'slate green'
p264
aa(lp265
g187
aS'mustard green'
p266
aa(lp267
g187
aS'green apple'
p268
aa(lp269
g187
aS'easter green'
p270
aa(lp271
g187
aS'slime green'
p272
aa(lp273
g187
aS'tree green'
p274
aa(lp275
g187
aS'gross green'
p276
aa(lp277
g187
ag145
aa(lp278
g187
aS'grass green'
p279
aa(lp280
g187
aS'military green'
p281
aa(lp282
g187
aS'jungle green'
p283
aa(lp284
g187
aS'sap green'
p285
aa(lp286
g187
aS'mint green'
p287
aa(lp288
g187
aS'leaf green'
p289
aa(lp290
g187
aS'shit green'
p291
aa(lp292
g187
ag152
aa(lp293
g187
aS'fern green'
p294
aa(lp295
g187
aS'army green'
p296
aa(lp297
g187
aS'seaweed green'
p298
aa(lp299
g187
ag134
aa(lp300
g187
aS'shamrock green'
p301
aa(lp302
g187
aS'sea green'
p303
aa(lp304
g187
aS'ocean green'
p305
aa(lp306
g220
ag244
aa(lp307
S'canary'
p308
ag15
aa(lp309
S'avocado'
p310
ag256
aa(lp311
S'orange'
p312
aS'brick orange'
p313
aa(lp314
g312
aS'pumpkin orange'
p315
aa(lp316
g312
aS'blood orange'
p317
aa(lp318
S'forest'
p319
ag236
aa(lp320
S'cornflower'
p321
ag92
aa(lp322
S'slate'
p323
ag58
aa(lp324
g323
ag264
aa(lp325
g323
ag119
aa(lp326
S'vomit'
p327
ag194
aa(lp328
S'navy'
p329
ag200
aa(lp330
g329
ag80
aa(lp331
S'pea'
p332
ag66
aa(lp333
g332
ag238
aa(lp334
g332
aS'pea soup'
p335
aa(lp336
S'sandy'
p337
ag13
aa(lp338
g337
ag53
aa(lp339
S'lipstick'
p340
aS'lipstick red'
p341
aa(lp342
S'red'
p343
ag182
aa(lp344
g343
ag341
aa(lp345
g343
aS'rose red'
p346
aa(lp347
g343
aS'brick red'
p348
aa(lp349
g343
aS'cherry red'
p350
aa(lp351
g343
aS'fire engine red'
p352
aa(lp353
g343
aS'indian red'
p354
aa(lp355
g343
aS'wine red'
p356
aa(lp357
g343
aS'rust red'
p358
aa(lp359
g343
ag185
aa(lp360
S'marine'
p361
ag88
aa(lp362
S'fern'
p363
ag294
aa(lp364
S'banana'
p365
ag21
aa(lp366
S'kiwi'
p367
ag216
aa(lp368
S'steel'
p369
ag86
aa(lp370
g369
ag60
aa(lp371
S'barf'
p372
ag213
aa(lp373
S'mint'
p374
ag190
aa(lp375
g374
ag287
aa(lp376
S'snot'
p377
ag234
aa(lp378
S"robin's egg"
p379
ag84
aa(lp380
S'salmon'
p381
ag171
aa(lp382
S'sage'
p383
ag196
aa(lp384
g335
ag227
aa(lp385
S'seaweed'
p386
ag298
aa(lp387
S'pumpkin'
p388
ag315
aa(lp389
S'jade'
p390
ag225
aa(lp391
S'sea'
p392
ag100
aa(lp393
g392
ag303
aa(lp394
S'mud'
p395
ag35
aa(lp396
S'aqua'
p397
ag111
aa(lp398
S'rose'
p399
ag346
aa(lp400
g399
ag176
aa(lp401
S'brick'
p402
ag313
aa(lp403
g402
ag348
aa(lp404
S'shamrock'
p405
ag301
aa(lp406
S'eggshell'
p407
ag113
aa(lp408
S'carnation'
p409
aS'carnation pink'
p410
aa(lp411
S'barney'
p412
aS'barney purple'
p413
aa(lp414
S'butter'
p415
ag17
aa(lp416
S'ocean'
p417
ag109
aa(lp418
g417
ag305
aa(lp419
S'flesh'
p420
ag169
aa(lp421
S'emerald'
p422
ag222
aa(lp423
S'apple'
p424
ag192
aa(lp425
g424
ag268
aa(lp426
S'sunflower'
p427
ag25
aa(lp428
S'cherry'
p429
ag350
aa(lp430
S'sky'
p431
ag90
aa(lp432
S'periwinkle'
p433
ag98
aa(lp434
S'denim'
p435
ag102
aa(lp436
S'ultramarine'
p437
ag115
aa(lp438
S'clay'
p439
ag33
aa(lp440
S'gross'
p441
ag276
aa(lp442
S'leaf'
p443
ag206
aa(lp444
g443
ag289
aa(lp445
S'purple'
p446
ag413
aa(lp447
g446
aS'plum purple'
p448
aa(lp449
g446
aS'purpley pink'
p450
aa(lp451
S'indigo'
p452
aS'indigo blue'
p453
aa(lp454
S'khaki'
p455
ag218
aa(lp456
S'ochre'
p457
ag3
aa(lp458
S'iris'
p459
aS'irish green'
p460
aa(lp461
S'plum'
p462
ag448
aa(lp463
S'baby poop'
p464
ag244
aa(lp465
S'moss'
p466
ag250
aa(lp467
S'cerulean'
p468
ag76
aa(lp469
S'grass'
p470
ag279
aa(lp471
S'rust'
p472
ag358
aa(lp473
g472
aS'rusty orange'
p474
aa(lp475
g472
aS'rust orange'
p476
aa(lp477
S'shit'
p478
ag43
aa(lp479
g478
ag291
aa(lp480
S'ice'
p481
ag78
aa(lp482
S'lemon'
p483
ag128
aa(lp484
g483
ag23
aa(lp485
S'bubblegum'
p486
ag165
aa(lp487
S'poop'
p488
ag37
aa(lp489
g488
ag220
aa(lp490
S'mustard'
p491
ag45
aa(lp492
g491
ag266
aa(lp493
g491
ag27
aa(lp494
S'wine'
p495
ag356
aa.