(lp0
F0.6669239256322342
aF2.1565522673614246
aF1.8459916020963587
aF0.5727727406926684
aF0.6786140889589946
aF3.162172252462003
aF0.4231843919138203
aF0.5796961567929817
aF1.3812540768774195
aF0.44524615164253983
aF0.5165686235589706
aF1.1082456585565548
aF0.07298361683156082
aF3.1125022689116393
aF0.4042715758141098
aF0.3488135635486793
aF0.36732091483316714
aF2.145828399866597
aF2.7000783721773267
aF1.3698843881198497
aF0.3680889114977302
aF10.223705428964898
aF2.0399191954278013
aF0.35996441850795824
aF0.46197257245309187
aF0.8563183156284538
aF0.7304893602596062
aF0.4626633869614427
aF0.43069075926212474
aF0.7171201076701162
aF0.7274068844961379
aF18.450970322281897
aF0.2053490027420287
a.