(lp0
F9.587463271704767
aF0.12734619176470924
aF0.6063676167012713
aF5.8250839880302205
aF5.887881616671161
aF3.2572854122230774
aF0.21256994391155284
aF3.486421003556418
aF2.389548070998807
aF0.6916995787650243
aF1.4642978344940825
aF1.9870580741264585
aF1.3677035078237498
aF19.035238618553663
aF0.2892763294311651
aF26.03545486776346
aF14.084040365630571
aF0.2561846329915153
aF14.222748676861414
aF0.5053772875136455
aF2.4346111123851393
aF0.6949435244652963
aF1.9325468226025575
aF0.6215209540772275
aF9.413949883164234
aF18.89110287069599
aF26.28054141018104
aF0.9081236425033811
aF0.47238073495483546
aF1.7417626887178326
aF0.9360374382293558
aF0.7380987929744487
aF0.3413976608671756
a.