(lp0
(((lp1
F-2.046313078635247
aF0.07347094043138662
aF-77.2864205649
aF5.29890378774
aF4.74955397321
aF-77.1481946068
aF2.10604557249
aF13.5783325449
aF0.459690817985
aF0.0728051665372
aF0.0507548540137
aF0.46734154156
aF0.353692464146
aF2.59362292373
aF-2.4226229068808114
aF-0.03864901571162911
aF29.453051895
aF3.90299466598
aF4.53535892943
aF29.7174269008
aF4.21601066563
aF4.16066532993
aF0.284799296947
aF0.0857258609582
aF0.0975788105691
aF0.205746980091
aF0.0982570707942
aF0.0992308997191
a(lp2
F-0.7570016704844902
aF-1.5453188312781363
aF80.7198064728
aF4.69660700063
aF8.34277659428
aF91.3836882985
aF10.5705448086
aF5.03627138354
aF2.64534083077
aF0.220215551972
aF0.57524912219
aF7.15917916041
aF0.731563156258
aF1.75518505837
aF-0.8231705797594817
aF-1.8199793374314792
aF89.3779723927
aF4.27755533189
aF10.1629214684
aF93.3297629547
aF8.55602135477
aF6.27675004729
aF3.94839477548
aF0.0935106264409
aF0.887113957453
aF4.62559296786
aF1.22417867028
aF1.27435232151
a(lp3
F-0.8803231397956746
aF-0.14102088243405062
aF54.8017993743
aF4.15804857301
aF5.79750749101
aF55.0201468178
aF4.63856513631
aF4.46752906941
aF0.430228518826
aF0.184992952506
aF0.372226445375
aF0.468418721785
aF0.204242298826
aF0.133053463241
aF-1.4640759501892957
aF-1.9931607326392689
aF71.5840637053
aF3.86504000615
aF6.55063757673
aF71.6631569659
aF4.65586232613
aF8.9388317076
aF0.104851171245
aF0.244052781038
aF0.454788051638
aF0.123141363398
aF0.729339642071
aF1.70236227399
atp4
S'purple-brown'
p5
((lp6
F-8.19805566296
aF4.67776280492
aF3.94452098612
aF-5.45942956414
aF3.83999654011
aF5.64917718243
aF1.90051150726
aF1.15211188705
aF0.95497061622
aF2.61957633296
aF1.06887353201
aF1.08387038535
a(lp7
F48.5555839866
aF3.63724626065
aF8.05697098985
aF53.6162034829
aF4.50041787275
aF2.07420408941
aF2.49685989395
aF1.0712855237
aF2.49500994388
aF4.13263822663
aF1.91230905866
aF0.69386881475
a(lp8
F39.3877941552
aF3.31228287488
aF5.06764114325
aF42.6524968898
aF3.50790454966
aF5.71510792658
aF3.743034212
aF0.837622278967
aF1.68622658632
aF3.29594733164
aF0.466703023186
aF0.721425634489
atp9
tp10
a(((lp11
F-2.8334551009076123
aF-0.20183869479213268
aF-0.53904651858
aF3.33609155313
aF3.92613873993
aF-0.23659689919
aF3.63769069478
aF2.87271396125
aF0.171918779621
aF0.0842231485141
aF0.0900472019407
aF0.189235254409
aF0.101608771998
aF0.072095779868
aF-2.9479695310429306
aF0.27067540128912565
aF7.42624322622
aF2.80487167666
aF4.76000531506
aF9.24511088814
aF2.76260741146
aF4.09226017045
aF1.37894346902
aF0.440481728565
aF0.62508103095
aF1.11329083401
aF0.610069684991
aF0.787600680267
a(lp12
F-1.0180022154409067
aF-1.5830131992831618
aF82.6543465665
aF4.69439783359
aF6.57186149706
aF90.1875477794
aF6.19634484514
aF8.74271573191
aF3.62479478491
aF0.277458734279
aF0.849829721005
aF5.26592748131
aF1.54239858688
aF1.4850856912
aF-1.7414738776744567
aF-2.0
aF98.7710304711
aF2.53840421774
aF7.57208146673
aF106.266028041
aF5.57681374745
aF3.22729930593
aF0.691473399594
aF0.0806842409814
aF0.438311763556
aF5.16198840797
aF2.76265303873
aF1.19444038482
a(lp13
F-1.0216831437917286
aF0.07894514979742337
aF65.0448853437
aF3.68459443092
aF4.66058913361
aF68.4012247596
aF4.63249627295
aF3.97257458469
aF2.8712564664
aF1.06524361735
aF0.850518714312
aF1.53661310922
aF0.549820567563
aF0.596881633577
aF-1.1458048968349925
aF-1.3850401011748241
aF89.6231427831
aF3.82661600741
aF6.14298975268
aF100.599982346
aF11.8341532822
aF8.68174231339
aF1.04475730039
aF0.0944047189627
aF0.293852849066
aF6.96609983212
aF0.895254854774
aF1.10790917781
atp14
S'brick red'
p15
((lp16
F6.32758398628
aF3.5377023165
aF4.28518382596
aF7.50772427329
aF2.59453016074
aF3.44881242449
aF1.11510231446
aF0.328337532055
aF0.523651510599
aF1.50282868569
aF0.807997837378
aF0.671559133009
a(lp17
F101.667981568
aF4.70712102697
aF7.06756817453
aF108.999972593
aF11.3617855032
aF8.56823719819
aF4.70239705216
aF0.38504258526
aF0.822618896498
aF8.12855178945
aF2.0388745154
aF2.89146758636
a(lp18
F63.539521803
aF2.8556848945
aF6.03021218796
aF65.2292210166
aF3.31860244084
aF5.66803191272
aF1.01942839268
aF0.32923695272
aF1.0027888614
aF1.48029787042
aF0.716953422312
aF1.09313071492
atp19
tp20
a(((lp21
F-2.4226229068808114
aF-0.03864901571162911
aF29.453051895
aF3.90299466598
aF4.53535892943
aF29.7174269008
aF4.21601066563
aF4.16066532993
aF0.284799296947
aF0.0857258609582
aF0.0975788105691
aF0.205746980091
aF0.0982570707942
aF0.0992308997191
aF-2.5849199254903645
aF0.006540711269147316
aF40.3592292027
aF3.58419961386
aF4.10625729712
aF40.7781270759
aF3.23758326805
aF4.77689308036
aF0.425927949911
aF0.428610160253
aF0.630776527644
aF0.479586565468
aF0.296764721858
aF0.481474640272
a(lp22
F-0.7570016704844902
aF-1.5453188312781363
aF80.7198064728
aF4.69660700063
aF8.34277659428
aF91.3836882985
aF10.5705448086
aF5.03627138354
aF2.64534083077
aF0.220215551972
aF0.57524912219
aF7.15917916041
aF0.731563156258
aF1.75518505837
aF-0.8415246053886374
aF-0.08701660183027397
aF48.7212344409
aF4.04010681133
aF5.9465289471
aF49.7554023005
aF2.82705441049
aF8.08867648968
aF0.879659613261
aF0.378362863599
aF0.761586637238
aF0.791440174555
aF0.420228772664
aF1.18343528847
a(lp23
F-0.8803231397956746
aF-0.14102088243405062
aF54.8017993743
aF4.15804857301
aF5.79750749101
aF55.0201468178
aF4.63856513631
aF4.46752906941
aF0.430228518826
aF0.184992952506
aF0.372226445375
aF0.468418721785
aF0.204242298826
aF0.133053463241
aF-1.2214873194868736
aF0.19574712818708517
aF81.7849019043
aF3.42318083311
aF4.43528560752
aF82.0440742463
aF3.76671062031
aF4.68166372597
aF0.397806356008
aF0.350949427017
aF0.590376985934
aF0.425706771429
aF0.188566539886
aF0.287589777892
atp24
S'tan brown'
p25
((lp26
F38.8817939441
aF5.20573011667
aF4.59755947096
aF41.9787696965
aF2.98651718869
aF3.98854434317
aF3.95864946903
aF1.52169088851
aF1.71928575606
aF4.25822552221
aF0.954040432598
aF1.33492225507
a(lp27
F49.899641169
aF1.52229637401
aF11.3276828913
aF61.1216625073
aF2.63289281184
aF9.03732901742
aF2.98768693091
aF0.651050374163
aF3.4189714987
aF4.32398866898
aF0.833764850995
aF0.959194804329
a(lp28
F66.3658331125
aF2.77470522443
aF5.01309489119
aF72.2229121138
aF2.93717071532
aF3.95631170188
aF5.90679309955
aF1.7901731623
aF1.10624450947
aF4.2364083184
aF0.938151654129
aF1.26196530839
atp29
tp30
a(((lp31
F-2.4073267547818618
aF0.5300978714947863
aF42.8916780487
aF3.84000323588
aF2.71538091987
aF47.6749284425
aF3.35205304226
aF6.23691568946
aF3.60872097785
aF1.18488477427
aF1.001202201
aF2.63527495503
aF0.854123393525
aF0.973502209891
aF-2.928537119787881
aF-0.44705233892428287
aF59.507060078
aF3.68103510673
aF3.42758461862
aF60.6865997377
aF2.21595267503
aF3.77869383178
aF0.301868608371
aF0.122931507123
aF0.0894484441083
aF0.519270332781
aF0.302289694945
aF0.359599266726
a(lp32
F-1.017189140935053
aF-1.8198203808065074
aF93.3318790084
aF3.37097949734
aF9.72784401344
aF103.410383859
aF7.21593976191
aF5.77544141299
aF1.4927829732
aF0.127834981995
aF0.821659030189
aF7.29081308428
aF1.37062613438
aF1.49110572422
aF-1.3450670132238314
aF-0.7755079503984844
aF54.1275268696
aF3.89327620731
aF4.44418925259
aF58.6711298232
aF2.05832726751
aF3.45310753694
aF3.61615776355
aF0.877149906136
aF1.02040839831
aF3.12493874881
aF0.913651820423
aF0.851291939553
a(lp33
F-1.4612797507882782
aF-0.928736619315648
aF89.2641239875
aF4.30773073618
aF3.82151476899
aF93.7622790007
aF1.90979634286
aF4.57236511814
aF2.69870076598
aF0.967925657823
aF1.07932720961
aF2.51922369905
aF0.856043401749
aF0.975405298585
aF-2.242461364165322
aF-2.0
aF97.4703605838
aF2.63249479556
aF3.5722517424
aF107.178671528
aF7.62600939102
aF2.49088994285
aF0.288085797551
aF0.0953990399443
aF0.143238246865
aF3.84220148013
aF1.85890896893
aF1.2302820249
atp34
S'sandy yellow'
p35
((lp36
F46.2931733857
aF1.8216297568
aF2.75120045464
aF49.3972342456
aF3.95576508513
aF4.66887529429
aF1.9636300466
aF0.802280280827
aF1.15651887719
aF2.3472291487
aF0.734490181466
aF1.23387938574
a(lp37
F53.4142244598
aF5.07619844911
aF3.16361799748
aF63.9887515559
aF8.6011085552
aF1.58981036769
aF3.36658272432
aF2.13782399252
aF1.32087650223
aF3.41001915725
aF1.15429394622
aF0.415891647048
a(lp38
F95.1338288896
aF3.83929944325
aF4.58182778612
aF104.026286962
aF1.89118304931
aF8.33791292833
aF4.19883318169
aF1.11113794356
aF1.61965665485
aF4.45882869869
aF1.33601433551
aF1.30685035213
atp39
tp40
a(((lp41
F-2.2674520214626934
aF0.9200732940768332
aF26.8853211146
aF2.34764348649
aF3.30799139427
aF33.6839617466
aF3.64736017069
aF7.49953065689
aF2.9012459324
aF1.61480802753
aF1.48660566236
aF3.59002638138
aF0.547063976632
aF0.871655244136
aF-2.4226229068808114
aF-0.03864901571162911
aF29.453051895
aF3.90299466598
aF4.53535892943
aF29.7174269008
aF4.21601066563
aF4.16066532993
aF0.284799296947
aF0.0857258609582
aF0.0975788105691
aF0.205746980091
aF0.0982570707942
aF0.0992308997191
a(lp42
F-0.7570016704844902
aF-1.5453188312781363
aF80.7198064728
aF4.69660700063
aF8.34277659428
aF91.3836882985
aF10.5705448086
aF5.03627138354
aF2.64534083077
aF0.220215551972
aF0.57524912219
aF7.15917916041
aF0.731563156258
aF1.75518505837
aF-1.0002922747247895
aF-1.330669780008328
aF82.3877104153
aF3.10300778165
aF8.86015905207
aF94.695753924
aF9.16292398813
aF4.64128585303
aF3.3309166892
aF1.05369866848
aF2.57353584213
aF9.95252174986
aF0.834430271767
aF0.918614742662
a(lp43
F-0.736078337762861
aF-0.266047071486956
aF65.5797416259
aF6.48348253747
aF4.16480818081
aF68.8292461535
aF3.24068979893
aF6.60555582642
aF2.26706900153
aF1.0081038204
aF0.579921460621
aF2.51459803691
aF0.713347312368
aF1.21377241789
aF-0.8803231397956746
aF-0.14102088243405062
aF54.8017993743
aF4.15804857301
aF5.79750749101
aF55.0201468178
aF4.63856513631
aF4.46752906941
aF0.430228518826
aF0.184992952506
aF0.372226445375
aF0.468418721785
aF0.204242298826
aF0.133053463241
atp44
S'shit brown'
p45
((lp46
F33.0945233828
aF2.34901779679
aF4.83986040167
aF37.130840741
aF1.99970859391
aF10.8873078613
aF3.0152797579
aF0.828960108516
aF1.36350541984
aF3.37897688471
aF0.645548253615
aF3.45322462051
a(lp47
F82.0005280243
aF2.48791754251
aF6.14216046114
aF96.4310525343
aF3.48473163662
aF5.21626936946
aF3.74153552893
aF1.15954085127
aF1.75179275095
aF3.18698397646
aF0.96814209279
aF1.13925765725
a(lp48
F41.0845067518
aF8.58587017502
aF1.30600945833
aF44.8614993824
aF4.89564173776
aF5.46377871763
aF2.80088851204
aF2.00691398281
aF0.891908751875
aF3.09319522479
aF1.0699382133
aF1.22551527648
atp49
tp50
a(((lp51
F-0.5112570890777401
aF-0.15979460056137357
aF141.253067853
aF10.333769125
aF11.8326098285
aF141.625207944
aF4.17002552864
aF26.5086950212
aF3.48638767334
aF0.458789959672
aF0.338534432706
aF3.45262060169
aF1.39571290678
aF8.29782280889
aF-2.046313078635247
aF0.07347094043138662
aF-77.2864205649
aF5.29890378774
aF4.74955397321
aF-77.1481946068
aF2.10604557249
aF13.5783325449
aF0.459690817985
aF0.0728051665372
aF0.0507548540137
aF0.46734154156
aF0.353692464146
aF2.59362292373
a(lp52
F-0.8231705797594817
aF-1.8199793374314792
aF89.3779723927
aF4.27755533189
aF10.1629214684
aF93.3297629547
aF8.55602135477
aF6.27675004729
aF3.94839477548
aF0.0935106264409
aF0.887113957453
aF4.62559296786
aF1.22417867028
aF1.27435232151
aF-1.49169690911387
aF0.6086512309685767
aF10.1837634054
aF3.9382547588
aF2.01265998786
aF11.3341000631
aF2.81766965775
aF5.87760504528
aF0.753157092936
aF0.345822047594
aF0.471268662656
aF0.516601547378
aF0.0812262674687
aF0.169878662617
a(lp53
F-0.7470958810130831
aF-0.11752712825195862
aF64.1738555206
aF3.95771508574
aF6.87838827912
aF64.6611940517
aF4.58782841055
aF5.20110120972
aF0.466763372131
aF0.306058143626
aF0.727123694077
aF0.49617045069
aF0.217331169954
aF0.200310115107
aF-1.4640759501892957
aF-1.9931607326392689
aF71.5840637053
aF3.86504000615
aF6.55063757673
aF71.6631569659
aF4.65586232613
aF8.9388317076
aF0.104851171245
aF0.244052781038
aF0.454788051638
aF0.123141363398
aF0.729339642071
aF1.70236227399
atp54
S'grey purple'
p55
((lp56
F-80.3444721259
aF9.55321130563
aF4.10105311251
aF-78.1183543263
aF3.10970787426
aF16.0473272986
aF6.15127384511
aF1.62999271098
aF0.761624080782
aF6.10859269934
aF0.758931969988
aF4.45222737229
a(lp57
F23.5893533189
aF3.079226813
aF3.74075851067
aF26.6049296463
aF1.90105937511
aF8.97010412233
aF2.24321668822
aF1.07744965191
aF0.865573680601
aF1.39107992064
aF0.263958883392
aF0.894599305247
a(lp58
F56.7895594487
aF5.15509078496
aF3.45232463751
aF61.4050254444
aF4.72422823634
aF3.87423636898
aF3.1070014652
aF1.1063476038
aF0.46340803808
aF3.07720765461
aF0.397048030852
aF0.75801391627
atp59
tp60
a(((lp61
F-1.6837443924311255
aF-0.175276250781552
aF120.198371716
aF4.85627364595
aF8.0610705536
aF120.300499387
aF5.49631969092
aF5.90078926466
aF0.272464663682
aF0.146058216508
aF0.324678653675
aF0.275234473199
aF0.190749135435
aF0.18298016778
aF-2.928537119787881
aF-0.44705233892428287
aF59.507060078
aF3.68103510673
aF3.42758461862
aF60.6865997377
aF2.21595267503
aF3.77869383178
aF0.301868608371
aF0.122931507123
aF0.0894484441083
aF0.519270332781
aF0.302289694945
aF0.359599266726
a(lp62
F-1.017189140935053
aF-1.8198203808065074
aF93.3318790084
aF3.37097949734
aF9.72784401344
aF103.410383859
aF7.21593976191
aF5.77544141299
aF1.4927829732
aF0.127834981995
aF0.821659030189
aF7.29081308428
aF1.37062613438
aF1.49110572422
aF-1.0545107916828782
aF-2.0
aF107.177169801
aF4.30013928789
aF10.6141361205
aF111.103879186
aF5.23210179217
aF6.38770463134
aF5.81320568884
aF0.0483589915853
aF1.50936999995
aF8.41076708894
aF1.70463725227
aF1.45622606236
a(lp63
F-1.1036243366290333
aF-0.6344499709585749
aF75.3372138987
aF3.270021904
aF7.44102477415
aF75.3830095147
aF4.69821272588
aF7.4229693103
aF0.175095780727
aF0.318337990367
aF0.833333492993
aF0.168944173603
aF0.412035996279
aF0.784368303704
aF-2.242461364165322
aF-2.0
aF97.4703605838
aF2.63249479556
aF3.5722517424
aF107.178671528
aF7.62600939102
aF2.49088994285
aF0.288085797551
aF0.0953990399443
aF0.143238246865
aF3.84220148013
aF1.85890896893
aF1.2302820249
atp64
S'yellow-green'
p65
((lp66
F72.4296671502
aF4.33507003264
aF2.57294076416
aF73.1635821943
aF2.91994547672
aF5.4352599208
aF1.0004246233
aF0.293544384576
aF0.294628094916
aF1.02299124032
aF0.278113264526
aF0.532476885672
a(lp67
F97.0881902778
aF3.87614823164
aF9.87165217996
aF101.249615367
aF11.0737603824
aF4.40521442154
aF3.86088686624
aF0.150397618474
aF0.838849643251
aF6.2654934228
aF0.922051895137
aF1.77245088511
a(lp68
F98.561977896
aF3.02131433565
aF7.12663308949
aF106.683354984
aF3.62713565756
aF9.83589341397
aF0.962459764418
aF0.190458909177
aF0.380885806474
aF2.85501219273
aF1.22776026941
aF1.51849954277
atp69
tp70
a(((lp71
F-1.6459605419303922
aF0.0038466521726713216
aF247.299982025
aF9.06437552719
aF3.76337714734
aF254.759285283
aF9.7032392591
aF3.3297283593
aF5.65472806585
aF2.67465323618
aF0.848780434852
aF9.57644968625
aF1.4695669355
aF1.16389162677
aF-1.8094532502643337
aF-0.3008373913539264
aF228.499693327
aF4.69826934006
aF7.75317280405
aF228.678331851
aF4.88390073801
aF5.51524242286
aF1.77018187161
aF0.204908480908
aF0.770304524727
aF1.70202348385
aF0.1861943677
aF0.200958443939
a(lp72
F-1.1874387763458787
aF-2.0
aF101.31174323
aF2.95141775429
aF12.1705860103
aF104.526609959
aF7.79439722621
aF10.8517543976
aF4.30351089274
aF0.0479564939515
aF1.71343623355
aF5.14763925408
aF1.1862700866
aF1.12288467151
aF-1.3958524709421976
aF-1.5588798389887775
aF92.6574069051
aF2.75228191075
aF7.48554256937
aF101.881043447
aF5.13964895643
aF10.7444159652
aF4.10666817007
aF0.522348525728
aF2.23682894581
aF6.53508857561
aF1.81008998504
aF1.84313524283
a(lp73
F-1.0951257391326503
aF-2.0
aF100.681158113
aF4.36663174546
aF8.48233313084
aF106.730233534
aF10.2866853835
aF3.16388154253
aF3.80794352228
aF0.155438097844
aF0.7401789204
aF5.85485941797
aF2.45640748498
aF2.00738024021
aF-1.371031558629274
aF-1.100146701583548
aF56.3037711261
aF3.73137424066
aF4.13471548923
aF67.7249327347
aF8.28214274397
aF7.76118769985
aF4.49223785333
aF1.1088022216
aF0.826054486481
aF2.92258577528
aF1.15665699043
aF0.956310476791
atp74
S'royal blue'
p75
((lp76
F241.629600896
aF3.04161335586
aF7.59229130229
aF242.481141111
aF3.10424226554
aF5.40336874885
aF1.01019731408
aF0.609390231959
aF1.41609476109
aF0.920645149536
aF0.205012823381
aF0.468008756892
a(lp77
F100.383161279
aF2.94857663073
aF7.46753929162
aF109.844771538
aF6.80427496503
aF2.89719721691
aF1.02634113974
aF0.0983924159255
aF0.388548550777
aF3.64200457234
aF2.34210141644
aF1.74661602569
a(lp78
F71.0483856243
aF3.07129103404
aF7.81814868447
aF72.2817055878
aF4.77212191504
aF7.5258144831
aF1.57630193076
aF0.40074759207
aF0.725987436481
aF1.57764513872
aF0.422166787552
aF1.05618651387
atp79
tp80
a(((lp81
F-1.6837443924311255
aF-0.175276250781552
aF120.198371716
aF4.85627364595
aF8.0610705536
aF120.300499387
aF5.49631969092
aF5.90078926466
aF0.272464663682
aF0.146058216508
aF0.324678653675
aF0.275234473199
aF0.190749135435
aF0.18298016778
aF-2.347655949841473
aF0.06410486946326335
aF170.268867917
aF4.2544611838
aF4.39319943701
aF170.547142843
aF3.30117081817
aF6.23190801003
aF0.27468607073
aF0.390432506721
aF0.40179484012
aF0.282490060131
aF0.278972319357
aF0.662339666482
a(lp82
F-0.6724211760322932
aF-2.0
aF99.7003788443
aF4.7086421535
aF11.6529831636
aF103.112014994
aF7.64234591553
aF11.5016354296
aF7.46110323591
aF0.150623510241
aF1.59432744221
aF8.67296757905
aF1.16042777503
aF1.48068650401
aF-1.0545107916828782
aF-2.0
aF107.177169801
aF4.30013928789
aF10.6141361205
aF111.103879186
aF5.23210179217
aF6.38770463134
aF5.81320568884
aF0.0483589915853
aF1.50936999995
aF8.41076708894
aF1.70463725227
aF1.45622606236
a(lp83
F-1.1036243366290333
aF-0.6344499709585749
aF75.3372138987
aF3.270021904
aF7.44102477415
aF75.3830095147
aF4.69821272588
aF7.4229693103
aF0.175095780727
aF0.318337990367
aF0.833333492993
aF0.168944173603
aF0.412035996279
aF0.784368303704
aF-1.3944985455507906
aF-1.9607722358489124
aF75.7301988772
aF4.04975277851
aF6.56219784897
aF76.2165394887
aF3.87119684278
aF14.8975473452
aF0.9358706204
aF0.298378600732
aF0.637096182638
aF0.985767112552
aF1.17223332268
aF4.53838813699
atp84
S'teal green'
p85
((lp86
F151.637826943
aF2.52442726154
aF4.70170082202
aF159.389315576
aF2.2887500651
aF5.18919719113
aF2.792984583
aF0.498974842128
aF0.878929783391
aF2.17750742424
aF0.537404629579
aF0.89952298137
a(lp87
F82.1101658963
aF4.55957903885
aF8.01479384021
aF87.2187512816
aF8.9558957934
aF3.35271144438
aF3.66804529356
aF1.11627470844
aF3.27792634889
aF5.53881734582
aF1.37157570547
aF1.73748400374
a(lp88
F69.1326541975
aF3.84214519073
aF5.65580683962
aF73.2887249169
aF5.99929287643
aF5.20391439118
aF3.20541358877
aF1.0429829473
aF0.904491629497
aF4.44010173999
aF1.96016658347
aF1.0572692582
atp89
tp90
a(((lp91
F-1.8094532502643337
aF-0.3008373913539264
aF228.499693327
aF4.69826934006
aF7.75317280405
aF228.678331851
aF4.88390073801
aF5.51524242286
aF1.77018187161
aF0.204908480908
aF0.770304524727
aF1.70202348385
aF0.1861943677
aF0.200958443939
aF-2.375302519400239
aF0.08294209566822745
aF171.978931848
aF3.95293253406
aF4.48860211848
aF172.765607008
aF4.39147056684
aF4.38490696239
aF0.489127830722
aF0.135790753768
aF0.211084726103
aF0.542147648209
aF0.16110077639
aF0.217604203943
a(lp92
F-0.8963644759653144
aF-2.0
aF99.4873204047
aF4.29269055013
aF10.2040084366
aF104.09316431
aF10.3851864529
aF8.20966507207
aF5.78601701104
aF0.0836944176566
aF1.52265555363
aF5.93011550644
aF1.56739368357
aF1.16544698129
aF-1.1874387763458787
aF-2.0
aF101.31174323
aF2.95141775429
aF12.1705860103
aF104.526609959
aF7.79439722621
aF10.8517543976
aF4.30351089274
aF0.0479564939515
aF1.71343623355
aF5.14763925408
aF1.1862700866
aF1.12288467151
a(lp93
F-1.0951257391326503
aF-2.0
aF100.681158113
aF4.36663174546
aF8.48233313084
aF106.730233534
aF10.2866853835
aF3.16388154253
aF3.80794352228
aF0.155438097844
aF0.7401789204
aF5.85485941797
aF2.45640748498
aF2.00738024021
aF-1.16418035406183
aF-2.0
aF99.3961802049
aF2.65090721824
aF13.2246585898
aF105.262035034
aF8.71747202094
aF6.14174874144
aF5.08241591167
aF0.0864602931611
aF2.45403241731
aF7.44876920753
aF0.868341527914
aF0.893100266025
atp94
S'turquoise blue'
p95
((lp96
F189.853181155
aF6.55139467695
aF3.26028802973
aF195.98832754
aF2.1217945323
aF3.59650533958
aF4.27664161697
aF0.913713142518
aF0.761287206956
aF2.90568223092
aF0.923855877428
aF1.24383739352
a(lp97
F71.7790311494
aF2.81353180591
aF5.0600463389
aF77.403407086
aF8.96641955235
aF6.46376967177
aF5.05964612148
aF1.47525281437
aF0.918749894922
aF5.81617362295
aF2.3539093826
aF1.65474265254
a(lp98
F79.9132722918
aF3.96154099278
aF4.63368837041
aF85.8037412518
aF4.75329669858
aF9.49964048529
aF3.60964324963
aF0.660289418286
aF0.740372098693
aF6.28221214266
aF0.945526893544
aF1.49831026208
atp99
tp100
a(((lp101
F-1.9849168708494251
aF-0.16248316051196068
aF-30.7162321448
aF4.78790491104
aF6.36620984703
aF-30.5807693927
aF4.81993797336
aF5.05124393974
aF0.435050763091
aF0.290200815141
aF0.520005978964
aF0.45375634464
aF0.152355190872
aF0.0785418954319
aF-2.1642173329029464
aF-0.49701016238996293
aF-0.856831660952
aF4.960111796
aF4.83736918773
aF7.66208606298
aF1.89139892955
aF7.71992089869
aF4.26420645885
aF1.2196610791
aF1.72083511423
aF2.61057661819
aF0.491190923061
aF0.838302410992
a(lp102
F-0.3950534334843415
aF0.3927232193053576
aF58.2440714596
aF4.58252998957
aF6.39767443818
aF58.3301945946
aF4.54187779629
aF9.62664540166
aF0.121016055625
aF0.293513771155
aF0.457005048449
aF0.120891143468
aF0.653271519079
aF1.51606760508
aF-0.8446933781951269
aF-0.779362257870568
aF49.5685416662
aF5.37718698533
aF5.14266755879
aF57.532066143
aF4.44849162376
aF2.22846963622
aF2.25728125028
aF0.889255951532
aF0.811368437478
aF4.52870325861
aF1.655552642
aF0.909197562766
a(lp103
F-1.4192527556621282
aF-2.0
aF99.4888840121
aF6.39894239261
aF3.91078718945
aF114.701435944
aF2.52476125408
aF2.23191752271
aF2.84066008865
aF2.08793954848
aF1.3647886082
aF9.91939487968
aF1.83738013276
aF1.67281749996
aF-1.969996319546431
aF-1.5410576405217622
aF96.3653561612
aF1.6917825868
aF7.7415009056
aF100.434499129
aF6.18323712923
aF3.08106159731
aF0.402455333438
aF0.0179422429296
aF0.335680278036
aF2.08171662216
aF2.15263904313
aF0.799577888335
atp104
S'blush pink'
p105
((lp106
F-7.01594473048
aF3.16392427901
aF5.54322032375
aF0.660138152095
aF2.44331885655
aF8.11338396979
aF5.7802308192
aF1.08123293139
aF1.14871601794
aF3.08794914931
aF0.798839627437
aF1.75042038553
a(lp107
F52.2701017635
aF3.87367987445
aF7.69664921876
aF58.1853604585
aF6.56981319597
aF1.4254282421
aF2.5701395531
aF0.841490266397
aF1.59446639252
aF2.7289621541
aF2.58564910256
aF1.09904034375
a(lp108
F95.3561961979
aF2.72684019831
aF4.13184954206
aF99.8542211387
aF4.16353440634
aF2.13516617726
aF2.15986967159
aF1.12793003065
aF1.488932166
aF2.72712282365
aF1.17323212477
aF1.2422683251
atp109
tp110
a(((lp111
F-1.6758515477016882
aF0.6611830235912195
aF227.478750622
aF6.38321360829
aF3.39884656973
aF231.633000682
aF3.91557372965
aF12.0154210673
aF4.99464878497
aF1.5374348675
aF1.10054906067
aF5.15807891538
aF0.794034848599
aF1.95702578025
aF-1.8094532502643337
aF-0.3008373913539264
aF228.499693327
aF4.69826934006
aF7.75317280405
aF228.678331851
aF4.88390073801
aF5.51524242286
aF1.77018187161
aF0.204908480908
aF0.770304524727
aF1.70202348385
aF0.1861943677
aF0.200958443939
a(lp112
F-1.0761686604523517
aF-1.580689231154314
aF76.7600540025
aF4.23857146784
aF6.923904815
aF83.9071877564
aF10.3729857357
aF3.66655643481
aF6.01561633133
aF0.744398706616
aF0.880559301668
aF8.25851916843
aF0.768526715765
aF1.06774772841
aF-1.1874387763458787
aF-2.0
aF101.31174323
aF2.95141775429
aF12.1705860103
aF104.526609959
aF7.79439722621
aF10.8517543976
aF4.30351089274
aF0.0479564939515
aF1.71343623355
aF5.14763925408
aF1.1862700866
aF1.12288467151
a(lp113
F-0.8842560163089686
aF-0.3070328164286123
aF27.1784538756
aF3.78398305492
aF5.89341113512
aF34.2708899729
aF1.68212434993
aF10.2853658531
aF2.43823295351
aF0.694824118528
aF0.884804129037
aF3.42949800846
aF0.561432499137
aF3.24234864219
aF-1.0951257391326503
aF-2.0
aF100.681158113
aF4.36663174546
aF8.48233313084
aF106.730233534
aF10.2866853835
aF3.16388154253
aF3.80794352228
aF0.155438097844
aF0.7401789204
aF5.85485941797
aF2.45640748498
aF2.00738024021
atp114
S'midnight blue'
p115
((lp116
F240.67628896
aF4.47391270222
aF7.61870580175
aF242.526965129
aF4.81642192668
aF4.73143937858
aF1.92001590615
aF0.52391169858
aF1.12357785989
aF1.91761183827
aF1.04494267573
aF0.989576962414
a(lp117
F101.907100567
aF3.39220462088
aF12.5079437523
aF108.83810752
aF9.26029179061
aF10.4408263596
aF7.01485596038
aF0.413921446248
aF3.59519778051
aF7.80700310301
aF1.03577376366
aF1.8253209792
a(lp118
F32.3847640968
aF7.31946639622
aF2.2007243282
aF36.1892241214
aF2.67477863109
aF5.30386787614
aF2.84936200209
aF1.85894417874
aF0.505479682483
aF1.79319426359
aF0.508259350057
aF1.37785258679
atp119
tp120
a(((lp121
F-1.6837443924311255
aF-0.175276250781552
aF120.198371716
aF4.85627364595
aF8.0610705536
aF120.300499387
aF5.49631969092
aF5.90078926466
aF0.272464663682
aF0.146058216508
aF0.324678653675
aF0.275234473199
aF0.190749135435
aF0.18298016778
aF-1.7978167723545035
aF0.05986778604383895
aF199.22953761
aF2.92141261385
aF10.8538723985
aF201.297740056
aF2.75806042551
aF12.2969283394
aF6.40953462988
aF0.423502494428
aF3.5127383333
aF6.77006413047
aF0.935816001364
aF1.74820560192
a(lp122
F-1.0545107916828782
aF-2.0
aF107.177169801
aF4.30013928789
aF10.6141361205
aF111.103879186
aF5.23210179217
aF6.38770463134
aF5.81320568884
aF0.0483589915853
aF1.50936999995
aF8.41076708894
aF1.70463725227
aF1.45622606236
aF-1.082278989453096
aF0.42516029852351483
aF21.6275162882
aF4.68398341664
aF2.92045322308
aF22.9596212509
aF3.61827561606
aF6.04666021832
aF2.14994411273
aF1.21556517579
aF1.13956642093
aF2.06416714667
aF0.458552422367
aF1.18215948581
a(lp123
F-0.7648443638610718
aF0.08449485541555639
aF54.68812493
aF3.5098327041
aF6.70031637596
aF56.8245537707
aF4.24397986593
aF5.94947805177
aF2.93982089353
aF0.902325069683
aF1.20370012681
aF3.11093394241
aF0.621300119519
aF0.89984469846
aF-1.1036243366290333
aF-0.6344499709585749
aF75.3372138987
aF3.270021904
aF7.44102477415
aF75.3830095147
aF4.69821272588
aF7.4229693103
aF0.175095780727
aF0.318337990367
aF0.833333492993
aF0.168944173603
aF0.412035996279
aF0.784368303704
atp124
S'slate green'
p125
((lp126
F133.351759027
aF4.04170282944
aF8.65856964386
aF136.989264492
aF5.48514687864
aF6.92099926989
aF5.23347383494
aF1.37042401176
aF1.85846294189
aF4.7082301788
aF0.895916430557
aF1.95990327553
a(lp127
F34.9420305048
aF5.74766786599
aF3.76231249972
aF37.6064315976
aF2.08528335697
aF6.64249353734
aF2.60119119925
aF0.859623015719
aF0.746623613285
aF2.40229437937
aF0.606195274012
aF1.45876169404
a(lp128
F48.4145851003
aF1.5085916087
aF7.92649302938
aF56.4156573448
aF3.14006027809
aF8.16444441814
aF2.6145961102
aF0.439662182206
aF1.4453095168
aF3.38648126178
aF0.493741652463
aF1.84205902244
atp129
tp130
a(((lp131
F-1.8094532502643337
aF-0.3008373913539264
aF228.499693327
aF4.69826934006
aF7.75317280405
aF228.678331851
aF4.88390073801
aF5.51524242286
aF1.77018187161
aF0.204908480908
aF0.770304524727
aF1.70202348385
aF0.1861943677
aF0.200958443939
aF-1.9495381547278536
aF0.5041958929143568
aF-87.4934821114
aF4.6048541129
aF4.66623712635
aF-86.7751404872
aF3.53757341088
aF9.89501868165
aF1.7680147083
aF0.407618367559
aF0.297826968522
aF1.66603109671
aF0.220434820636
aF0.876842717875
a(lp132
F-0.6320807352964312
aF-1.978023795275336
aF97.8111126167
aF4.71434862919
aF11.684655417
aF101.604886477
aF5.78600352791
aF10.3597846972
aF9.96130612797
aF0.320525943038
aF1.84654822026
aF11.0631131646
aF2.65016734641
aF1.21879744034
aF-1.1874387763458787
aF-2.0
aF101.31174323
aF2.95141775429
aF12.1705860103
aF104.526609959
aF7.79439722621
aF10.8517543976
aF4.30351089274
aF0.0479564939515
aF1.71343623355
aF5.14763925408
aF1.1862700866
aF1.12288467151
a(lp133
F-0.8431604226887838
aF-1.668847269965851
aF92.3260470912
aF3.35399375401
aF11.7554790733
aF100.548402363
aF5.08845636422
aF9.4750369064
aF3.70427579389
aF0.10066356968
aF1.57844010871
aF6.06782100107
aF2.15909015594
aF1.17060791944
aF-1.0951257391326503
aF-2.0
aF100.681158113
aF4.36663174546
aF8.48233313084
aF106.730233534
aF10.2866853835
aF3.16388154253
aF3.80794352228
aF0.155438097844
aF0.7401789204
aF5.85485941797
aF2.45640748498
aF2.00738024021
atp134
S'violet blue'
p135
((lp136
F250.211085581
aF1.77020710692
aF5.6791088778
aF256.505217191
aF2.19184210277
aF5.75697209372
aF2.27321564391
aF0.545879479915
aF1.03387499562
aF1.23989914899
aF0.489531218561
aF1.35557353678
a(lp137
F83.7313194864
aF5.34996086731
aF5.89271731049
aF92.3393251946
aF12.2713850428
aF5.93986862243
aF3.27929831935
aF0.523439026228
aF0.705045938407
aF5.01155804879
aF2.78955813907
aF1.23999977714
a(lp138
F89.5312269765
aF3.86372809457
aF7.34705679716
aF96.1190464701
aF9.11504469253
aF5.39823821368
aF3.44332032272
aF0.65189941162
aF1.65805362619
aF7.05507901854
aF1.05386751273
aF1.67727805936
atp139
tp140
a(((lp141
F-2.620739458764942
aF0.06905495342637169
aF24.8490739737
aF3.87056113931
aF3.43311285649
aF25.8817722776
aF4.23407341076
aF3.38984931744
aF0.335061890645
aF0.111476187668
aF0.116029867867
aF0.435541034402
aF0.0994139311488
aF0.118561609619
aF-2.928537119787881
aF-0.44705233892428287
aF59.507060078
aF3.68103510673
aF3.42758461862
aF60.6865997377
aF2.21595267503
aF3.77869383178
aF0.301868608371
aF0.122931507123
aF0.0894484441083
aF0.519270332781
aF0.302289694945
aF0.359599266726
a(lp142
F-1.017189140935053
aF-1.8198203808065074
aF93.3318790084
aF3.37097949734
aF9.72784401344
aF103.410383859
aF7.21593976191
aF5.77544141299
aF1.4927829732
aF0.127834981995
aF0.821659030189
aF7.29081308428
aF1.37062613438
aF1.49110572422
aF-1.3527691130361084
aF-1.556758104186423
aF93.739141837
aF2.62006566428
aF8.56813247301
aF100.531438331
aF8.76587769512
aF4.56443932408
aF1.16929748954
aF0.0939703368624
aF0.398322017888
aF4.51821689932
aF0.91742937774
aF1.32887219651
a(lp143
F-1.8965341812146397
aF-1.701661665811218
aF97.0219296469
aF2.55788706195
aF5.53714151273
aF100.739221705
aF9.21153947613
aF5.7233521268
aF0.600535448981
aF0.0475054768872
aF0.310979786154
aF2.71702884494
aF2.0441966353
aF2.00797943507
aF-2.242461364165322
aF-2.0
aF97.4703605838
aF2.63249479556
aF3.5722517424
aF107.178671528
aF7.62600939102
aF2.49088994285
aF0.288085797551
aF0.0953990399443
aF0.143238246865
aF3.84220148013
aF1.85890896893
aF1.2302820249
atp144
S'yellow-orange'
p145
((lp146
F39.8012028012
aF2.39140430708
aF3.27515600774
aF43.120741957
aF1.98495814612
aF4.40977678563
aF1.47361389277
aF1.0103754401
aF0.855449992469
aF1.1640948681
aF0.737197137634
aF1.40807759621
a(lp147
F92.1829783204
aF3.72570740134
aF6.28621160935
aF99.5968089374
aF7.07181859184
aF9.6717291841
aF6.95637718657
aF1.05342002449
aF0.973582498657
aF5.7577752164
aF1.8578880306
aF1.49717479031
a(lp148
F95.0991555686
aF0.99433486096
aF10.0750838593
aF119.070614724
aF2.72232684468
aF0.935541242849
aF0.795406909737
aF0.366715350217
aF3.0886617441
aF10.6570041521
aF1.51980917036
aF0.561036799549
atp149
tp150
a(((lp151
F-1.6758515477016882
aF0.6611830235912195
aF227.478750622
aF6.38321360829
aF3.39884656973
aF231.633000682
aF3.91557372965
aF12.0154210673
aF4.99464878497
aF1.5374348675
aF1.10054906067
aF5.15807891538
aF0.794034848599
aF1.95702578025
aF-2.046313078635247
aF0.07347094043138662
aF-77.2864205649
aF5.29890378774
aF4.74955397321
aF-77.1481946068
aF2.10604557249
aF13.5783325449
aF0.459690817985
aF0.0728051665372
aF0.0507548540137
aF0.46734154156
aF0.353692464146
aF2.59362292373
a(lp152
F-0.8231705797594817
aF-1.8199793374314792
aF89.3779723927
aF4.27755533189
aF10.1629214684
aF93.3297629547
aF8.55602135477
aF6.27675004729
aF3.94839477548
aF0.0935106264409
aF0.887113957453
aF4.62559296786
aF1.22417867028
aF1.27435232151
aF-1.0761686604523517
aF-1.580689231154314
aF76.7600540025
aF4.23857146784
aF6.923904815
aF83.9071877564
aF10.3729857357
aF3.66655643481
aF6.01561633133
aF0.744398706616
aF0.880559301668
aF8.25851916843
aF0.768526715765
aF1.06774772841
a(lp153
F-0.8842560163089686
aF-0.3070328164286123
aF27.1784538756
aF3.78398305492
aF5.89341113512
aF34.2708899729
aF1.68212434993
aF10.2853658531
aF2.43823295351
aF0.694824118528
aF0.884804129037
aF3.42949800846
aF0.561432499137
aF3.24234864219
aF-1.4640759501892957
aF-1.9931607326392689
aF71.5840637053
aF3.86504000615
aF6.55063757673
aF71.6631569659
aF4.65586232613
aF8.9388317076
aF0.104851171245
aF0.244052781038
aF0.454788051638
aF0.123141363398
aF0.729339642071
aF1.70236227399
atp154
S'midnight purple'
p155
((lp156
F269.572755806
aF3.0065012337
aF7.19209207281
aF274.698299953
aF2.69805740616
aF7.48320243738
aF3.43191523353
aF1.50973554893
aF3.40185058888
aF2.90525711659
aF0.772093370803
aF1.42365085105
a(lp157
F54.1319951205
aF3.09039662342
aF4.30905318789
aF71.8675327881
aF10.2911175797
aF6.06645448415
aF7.27372326695
aF1.33596146857
aF0.690720931189
aF6.83737837359
aF2.13056400131
aF0.774515242936
a(lp158
F34.5913640181
aF3.83987062906
aF7.48118918649
aF40.7403403068
aF1.06173434663
aF6.37534219375
aF2.45007725646
aF0.653914635689
aF0.742600902778
aF2.27530657552
aF0.648577474635
aF0.672698306215
atp159
tp160
a(((lp161
F-0.5112570890777401
aF-0.15979460056137357
aF141.253067853
aF10.333769125
aF11.8326098285
aF141.625207944
aF4.17002552864
aF26.5086950212
aF3.48638767334
aF0.458789959672
aF0.338534432706
aF3.45262060169
aF1.39571290678
aF8.29782280889
aF-1.9849168708494251
aF-0.16248316051196068
aF-30.7162321448
aF4.78790491104
aF6.36620984703
aF-30.5807693927
aF4.81993797336
aF5.05124393974
aF0.435050763091
aF0.290200815141
aF0.520005978964
aF0.45375634464
aF0.152355190872
aF0.0785418954319
a(lp162
F-0.3950534334843415
aF0.3927232193053576
aF58.2440714596
aF4.58252998957
aF6.39767443818
aF58.3301945946
aF4.54187779629
aF9.62664540166
aF0.121016055625
aF0.293513771155
aF0.457005048449
aF0.120891143468
aF0.653271519079
aF1.51606760508
aF-1.49169690911387
aF0.6086512309685767
aF10.1837634054
aF3.9382547588
aF2.01265998786
aF11.3341000631
aF2.81766965775
aF5.87760504528
aF0.753157092936
aF0.345822047594
aF0.471268662656
aF0.516601547378
aF0.0812262674687
aF0.169878662617
a(lp163
F-0.7470958810130831
aF-0.11752712825195862
aF64.1738555206
aF3.95771508574
aF6.87838827912
aF64.6611940517
aF4.58782841055
aF5.20110120972
aF0.466763372131
aF0.306058143626
aF0.727123694077
aF0.49617045069
aF0.217331169954
aF0.200310115107
aF-1.969996319546431
aF-1.5410576405217622
aF96.3653561612
aF1.6917825868
aF7.7415009056
aF100.434499129
aF6.18323712923
aF3.08106159731
aF0.402455333438
aF0.0179422429296
aF0.335680278036
aF2.08171662216
aF2.15263904313
aF0.799577888335
atp164
S'grey pink'
p165
((lp166
F-14.9411688749
aF5.30722405122
aF4.38862501658
aF-11.9528948704
aF4.7533553852
aF6.10981176749
aF3.23912534818
aF1.53272947675
aF1.19993077974
aF2.53245581342
aF0.942062302097
aF1.41645249188
a(lp167
F27.0332756811
aF4.48269380161
aF3.91917906791
aF32.7079457753
aF1.76995970723
aF8.76194001793
aF2.46344979401
aF1.14216431992
aF0.977780864985
aF2.67383452573
aF0.619573015911
aF2.46609460478
a(lp168
F79.8620303779
aF3.70636896753
aF3.6259340998
aF84.3227810707
aF3.58613726491
aF2.02646247923
aF2.83178827131
aF0.955489098727
aF1.03708376156
aF1.95978792589
aF1.0052337122
aF1.08919717652
atp169
tp170
a(((lp171
F-2.4226229068808114
aF-0.03864901571162911
aF29.453051895
aF3.90299466598
aF4.53535892943
aF29.7174269008
aF4.21601066563
aF4.16066532993
aF0.284799296947
aF0.0857258609582
aF0.0975788105691
aF0.205746980091
aF0.0982570707942
aF0.0992308997191
aF-2.620739458764942
aF0.06905495342637169
aF24.8490739737
aF3.87056113931
aF3.43311285649
aF25.8817722776
aF4.23407341076
aF3.38984931744
aF0.335061890645
aF0.111476187668
aF0.116029867867
aF0.435541034402
aF0.0994139311488
aF0.118561609619
a(lp172
F-0.7570016704844902
aF-1.5453188312781363
aF80.7198064728
aF4.69660700063
aF8.34277659428
aF91.3836882985
aF10.5705448086
aF5.03627138354
aF2.64534083077
aF0.220215551972
aF0.57524912219
aF7.15917916041
aF0.731563156258
aF1.75518505837
aF-1.3527691130361084
aF-1.556758104186423
aF93.739141837
aF2.62006566428
aF8.56813247301
aF100.531438331
aF8.76587769512
aF4.56443932408
aF1.16929748954
aF0.0939703368624
aF0.398322017888
aF4.51821689932
aF0.91742937774
aF1.32887219651
a(lp173
F-0.8803231397956746
aF-0.14102088243405062
aF54.8017993743
aF4.15804857301
aF5.79750749101
aF55.0201468178
aF4.63856513631
aF4.46752906941
aF0.430228518826
aF0.184992952506
aF0.372226445375
aF0.468418721785
aF0.204242298826
aF0.133053463241
aF-1.8965341812146397
aF-1.701661665811218
aF97.0219296469
aF2.55788706195
aF5.53714151273
aF100.739221705
aF9.21153947613
aF5.7233521268
aF0.600535448981
aF0.0475054768872
aF0.310979786154
aF2.71702884494
aF2.0441966353
aF2.00797943507
atp174
S'orange-brown'
p175
((lp176
F27.5771927479
aF4.94668070079
aF2.38529705035
aF29.4546105833
aF2.26043092927
aF6.3157523444
aF1.8549920513
aF0.973251827595
aF0.319071167706
aF2.03872396857
aF0.915148534727
aF2.39892372108
a(lp177
F93.8670114793
aF3.31352440546
aF8.3005493317
aF106.58110665
aF7.1408096856
aF5.09956574097
aF6.46725728655
aF0.620823260273
aF1.2697947982
aF7.91581057359
aF2.43124727655
aF1.00531954352
a(lp178
F76.503989524
aF1.96756075567
aF7.39355443551
aF79.2795461993
aF3.67304053783
aF2.62783858333
aF1.360859756
aF0.3158435943
aF1.43623330618
aF1.57870671207
aF0.56837993972
aF0.649152107895
atp179
tp180
a(((lp181
F-1.8094532502643337
aF-0.3008373913539264
aF228.499693327
aF4.69826934006
aF7.75317280405
aF228.678331851
aF4.88390073801
aF5.51524242286
aF1.77018187161
aF0.204908480908
aF0.770304524727
aF1.70202348385
aF0.1861943677
aF0.200958443939
aF-1.8961463583447893
aF0.025092885557720216
aF-84.7811816422
aF4.15916135498
aF6.9440642141
aF-84.2487612017
aF2.41369364151
aF13.076585559
aF0.891348928452
aF0.452774121322
aF0.576246295879
aF0.771997715813
aF0.402681200036
aF2.52016565274
a(lp182
F-0.8846024318041489
aF0.17618224565778529
aF34.9675181986
aF4.59600011954
aF4.36634838745
aF35.5526865035
aF3.26097051432
aF7.58961664314
aF0.675965147823
aF0.33136847487
aF0.25474039323
aF0.62549571557
aF0.276259852763
aF0.810598060954
aF-1.1874387763458787
aF-2.0
aF101.31174323
aF2.95141775429
aF12.1705860103
aF104.526609959
aF7.79439722621
aF10.8517543976
aF4.30351089274
aF0.0479564939515
aF1.71343623355
aF5.14763925408
aF1.1862700866
aF1.12288467151
a(lp183
F-1.0951257391326503
aF-2.0
aF100.681158113
aF4.36663174546
aF8.48233313084
aF106.730233534
aF10.2866853835
aF3.16388154253
aF3.80794352228
aF0.155438097844
aF0.7401789204
aF5.85485941797
aF2.45640748498
aF2.00738024021
aF-1.3554283455876701
aF-2.0
aF98.6919112331
aF5.03996981134
aF5.36461518939
aF105.28164941
aF5.43544865679
aF9.887771577
aF2.45776250545
aF0.161498794912
aF0.438244596844
aF6.30539236143
aF1.12396630794
aF1.0076139676
atp184
S'lavender blue'
p185
((lp186
F245.205891434
aF2.80692134692
aF5.21964308706
aF253.185292261
aF3.01575968213
aF4.62682507022
aF4.13046284694
aF1.37108272991
aF0.982699735525
aF4.07698360738
aF0.917436613511
aF1.90434135841
a(lp187
F56.6832482502
aF4.73369778877
aF6.14797490484
aF64.1677752864
aF3.61897451687
aF6.57234953041
aF2.73002791086
aF0.895191575091
aF0.769598408146
aF3.19434895485
aF1.30174868511
aF1.31769508869
a(lp188
F84.1115567729
aF2.62111993207
aF4.20639954396
aF118.245724787
aF3.23366741864
aF4.54253943966
aF3.53128282171
aF0.873108483238
aF0.756137435566
aF8.9072778868
aF1.07983411696
aF1.98223180228
atp189
tp190
a(((lp191
F-1.6837443924311255
aF-0.175276250781552
aF120.198371716
aF4.85627364595
aF8.0610705536
aF120.300499387
aF5.49631969092
aF5.90078926466
aF0.272464663682
aF0.146058216508
aF0.324678653675
aF0.275234473199
aF0.190749135435
aF0.18298016778
aF-2.5004649137951294
aF-0.6533078177689298
aF47.8126077445
aF3.65589295385
aF5.62382715734
aF49.7039700726
aF2.95164730498
aF3.59962661615
aF5.62150537604
aF0.735928904333
aF0.85859577822
aF5.09614508928
aF2.06646955809
aF0.78063348394
a(lp192
F-1.0545107916828782
aF-2.0
aF107.177169801
aF4.30013928789
aF10.6141361205
aF111.103879186
aF5.23210179217
aF6.38770463134
aF5.81320568884
aF0.0483589915853
aF1.50936999995
aF8.41076708894
aF1.70463725227
aF1.45622606236
aF-1.3520858672529832
aF-1.7064863934630325
aF83.2958815809
aF2.13541571715
aF12.245266588
aF87.092481306
aF8.12684406716
aF6.38304478431
aF3.46229092371
aF0.460073981309
aF3.07215906231
aF3.46192263062
aF1.90009201641
aF1.72457458616
a(lp193
F-0.9600101687071751
aF-0.5056755470920966
aF62.2191229289
aF5.57807847271
aF4.27118016445
aF65.51557195
aF2.54668365123
aF5.72067374065
aF1.71189945691
aF0.602095320838
aF0.621209702416
aF2.25063936262
aF1.00730528035
aF1.85316535776
aF-1.1036243366290333
aF-0.6344499709585749
aF75.3372138987
aF3.270021904
aF7.44102477415
aF75.3830095147
aF4.69821272588
aF7.4229693103
aF0.175095780727
aF0.318337990367
aF0.833333492993
aF0.168944173603
aF0.412035996279
aF0.784368303704
atp194
S'poop green'
p195
((lp196
F66.5215393625
aF4.44758833246
aF2.86275167262
aF74.9791024138
aF3.09331372907
aF1.94607584328
aF3.64394282786
aF0.662799047719
aF0.960711554489
aF2.69331266013
aF1.0731170529
aF1.33622522748
a(lp197
F82.3949774555
aF5.06923969312
aF3.81364501054
aF95.9534151834
aF4.62030045173
aF5.77187716604
aF3.62743360438
aF1.31922218689
aF0.901584420329
aF9.66216713943
aF2.11613350247
aF1.47849962705
a(lp198
F48.5001897797
aF4.6947186537
aF4.48074559218
aF53.9246740369
aF2.77809045201
aF9.10076591965
aF4.1431726735
aF1.84913227132
aF1.25872057166
aF3.56981460934
aF0.63647437914
aF1.57927400438
atp199
tp200
a(((lp201
F-2.9065287458141276
aF-0.22653126023298753
aF63.7689223656
aF3.37554875507
aF3.22599840915
aF66.5467084435
aF1.41519742089
aF7.01645184867
aF1.61594956275
aF0.529127711963
aF1.07610574096
aF1.49155223582
aF0.455729297698
aF1.57217402414
aF-2.928537119787881
aF-0.44705233892428287
aF59.507060078
aF3.68103510673
aF3.42758461862
aF60.6865997377
aF2.21595267503
aF3.77869383178
aF0.301868608371
aF0.122931507123
aF0.0894484441083
aF0.519270332781
aF0.302289694945
aF0.359599266726
a(lp202
F-1.017189140935053
aF-1.8198203808065074
aF93.3318790084
aF3.37097949734
aF9.72784401344
aF103.410383859
aF7.21593976191
aF5.77544141299
aF1.4927829732
aF0.127834981995
aF0.821659030189
aF7.29081308428
aF1.37062613438
aF1.49110572422
aF-1.4259758868930583
aF-1.6652354972114194
aF68.0463563112
aF3.70579332917
aF5.95284468488
aF72.0681144196
aF4.255811293
aF7.97343037982
aF2.17290278231
aF0.556877159824
aF1.0173484426
aF2.73801650877
aF1.36362772779
aF1.81652347546
a(lp203
F-2.242461364165322
aF-2.0
aF97.4703605838
aF2.63249479556
aF3.5722517424
aF107.178671528
aF7.62600939102
aF2.49088994285
aF0.288085797551
aF0.0953990399443
aF0.143238246865
aF3.84220148013
aF1.85890896893
aF1.2302820249
aF-2.2929642915781514
aF-2.0
aF96.7743032282
aF1.37662571343
aF6.66751725342
aF111.828766412
aF5.87796813041
aF6.08157446583
aF1.34039491878
aF0.530044695348
aF1.77839631281
aF3.82212337354
aF1.40159072056
aF1.63194652169
atp204
S'lemon yellow'
p205
((lp206
F61.5956543111
aF6.28539391664
aF1.19208839695
aF64.7441452424
aF1.81341914661
aF4.16015680288
aF2.17368843111
aF1.35289886402
aF0.56403292611
aF1.89904541928
aF0.877026594185
aF1.41675307416
a(lp207
F74.1327763551
aF4.42130468488
aF5.44759174151
aF91.6082602708
aF7.26223997553
aF4.75037785146
aF3.46304483012
aF1.05601798874
aF1.55335220935
aF10.7068485425
aF2.30380869569
aF0.884277397305
a(lp208
F98.1856888468
aF3.89403005675
aF2.14836225195
aF120.637730507
aF4.86170335823
aF7.78327241837
aF1.43070532236
aF1.02764888465
aF0.518095262774
aF5.70187980099
aF2.08834853366
aF2.07379199638
atp209
tp210
a(((lp211
F-1.6837443924311255
aF-0.175276250781552
aF120.198371716
aF4.85627364595
aF8.0610705536
aF120.300499387
aF5.49631969092
aF5.90078926466
aF0.272464663682
aF0.146058216508
aF0.324678653675
aF0.275234473199
aF0.190749135435
aF0.18298016778
aF-2.3904097506302966
aF0.11396657633085276
aF67.4067288144
aF3.55695469817
aF4.67201111146
aF68.4375806136
aF2.68643329396
aF7.48750942849
aF0.83125127391
aF0.240285679532
aF0.466949690372
aF0.702102572096
aF0.330106834082
aF1.04077530351
a(lp212
F-0.9469264611377074
aF-1.881078861207491
aF71.5421346648
aF4.39166480568
aF9.05087079029
aF73.8487975452
aF6.15619590118
aF8.20164513473
aF1.18567723956
aF0.846961038241
aF2.25704930789
aF1.76739784238
aF1.3363072552
aF1.72634703355
aF-1.0545107916828782
aF-2.0
aF107.177169801
aF4.30013928789
aF10.6141361205
aF111.103879186
aF5.23210179217
aF6.38770463134
aF5.81320568884
aF0.0483589915853
aF1.50936999995
aF8.41076708894
aF1.70463725227
aF1.45622606236
a(lp213
F-0.954990036923028
aF-0.015904038804831874
aF58.7896883952
aF2.84168690496
aF7.49242200022
aF60.0694714603
aF3.14654955037
aF6.58039804172
aF0.646796235403
aF0.362624791208
aF1.01069789378
aF0.523950093773
aF0.269062298766
aF0.601964254418
aF-1.1036243366290333
aF-0.6344499709585749
aF75.3372138987
aF3.270021904
aF7.44102477415
aF75.3830095147
aF4.69821272588
aF7.4229693103
aF0.175095780727
aF0.318337990367
aF0.833333492993
aF0.168944173603
aF0.412035996279
aF0.784368303704
atp214
S'olive green'
p215
((lp216
F74.3187866862
aF5.11714959804
aF3.63227632866
aF74.959406744
aF2.45869655229
aF7.68671390209
aF0.749054719268
aF0.579946070756
aF0.429461651619
aF0.662690113251
aF0.27369819534
aF0.826948389797
a(lp217
F86.6222232129
aF5.20040151828
aF8.94190849396
aF89.9258375192
aF9.78495113751
aF5.09920247553
aF5.01957211208
aF0.281358637458
aF0.926304087468
aF6.15218408731
aF1.48877426916
aF1.76755764361
a(lp218
F58.4592449901
aF2.61021821591
aF8.58861408579
aF59.5774567179
aF2.79054793566
aF6.56161578785
aF0.961974355545
aF0.199604208116
aF0.803671430341
aF0.955368190194
aF0.505181742288
aF1.02125796481
atp219
tp220
a(((lp221
F-0.5112570890777401
aF-0.15979460056137357
aF141.253067853
aF10.333769125
aF11.8326098285
aF141.625207944
aF4.17002552864
aF26.5086950212
aF3.48638767334
aF0.458789959672
aF0.338534432706
aF3.45262060169
aF1.39571290678
aF8.29782280889
aF-1.6284255689419844
aF0.8706215710763157
aF185.296514561
aF4.09942872225
aF4.53749566579
aF191.094869335
aF7.48285146238
aF6.72052147244
aF2.38792613484
aF1.61060141983
aF1.65320127552
aF3.33290208331
aF1.38386487074
aF1.06405221464
a(lp222
F-1.129774505942833
aF-0.35502732499615275
aF22.2066578263
aF2.61964956773
aF7.74160539374
aF24.8998440762
aF4.02397218812
aF3.36689440903
aF1.71132139661
aF0.671029176019
aF1.58418625323
aF1.95642367501
aF1.39236979159
aF0.972991856142
aF-1.49169690911387
aF0.6086512309685767
aF10.1837634054
aF3.9382547588
aF2.01265998786
aF11.3341000631
aF2.81766965775
aF5.87760504528
aF0.753157092936
aF0.345822047594
aF0.471268662656
aF0.516601547378
aF0.0812262674687
aF0.169878662617
a(lp223
F-0.7470958810130831
aF-0.11752712825195862
aF64.1738555206
aF3.95771508574
aF6.87838827912
aF64.6611940517
aF4.58782841055
aF5.20110120972
aF0.466763372131
aF0.306058143626
aF0.727123694077
aF0.49617045069
aF0.217331169954
aF0.200310115107
aF-1.0979036623419969
aF0.15821575411303887
aF57.6176773471
aF1.79421790716
aF8.68973861988
aF62.8688280468
aF3.22491952815
aF5.32636396388
aF2.57374146641
aF0.451001618252
aF1.29607218556
aF4.32095437047
aF1.0208550959
aF0.719408266806
atp224
S'steel grey'
p225
((lp226
F183.891354322
aF5.53541086477
aF5.28161759955
aF193.170030317
aF4.8716846282
aF9.62939003537
aF3.39918172304
aF1.02866020514
aF1.58067777123
aF7.0617956674
aF0.999302922845
aF2.02105626359
a(lp227
F10.5509444945
aF2.0574703146
aF2.58390837785
aF20.9239570021
aF3.31461496633
aF4.91645064737
aF4.60523501695
aF1.28159364776
aF1.53675444269
aF1.84271620251
aF0.59704959377
aF1.27095049951
a(lp228
F52.3425767595
aF1.92565470838
aF8.98652077254
aF59.1807707659
aF3.48446360963
aF5.42644672825
aF5.05699205125
aF0.750088681171
aF1.52096001945
aF2.3014452784
aF0.5769047358
aF0.849090133387
atp229
tp230
a(((lp231
F-2.4226229068808114
aF-0.03864901571162911
aF29.453051895
aF3.90299466598
aF4.53535892943
aF29.7174269008
aF4.21601066563
aF4.16066532993
aF0.284799296947
aF0.0857258609582
aF0.0975788105691
aF0.205746980091
aF0.0982570707942
aF0.0992308997191
aF-2.8334551009076123
aF-0.20183869479213268
aF-0.53904651858
aF3.33609155313
aF3.92613873993
aF-0.23659689919
aF3.63769069478
aF2.87271396125
aF0.171918779621
aF0.0842231485141
aF0.0900472019407
aF0.189235254409
aF0.101608771998
aF0.072095779868
a(lp232
F-0.7570016704844902
aF-1.5453188312781363
aF80.7198064728
aF4.69660700063
aF8.34277659428
aF91.3836882985
aF10.5705448086
aF5.03627138354
aF2.64534083077
aF0.220215551972
aF0.57524912219
aF7.15917916041
aF0.731563156258
aF1.75518505837
aF-1.7414738776744567
aF-2.0
aF98.7710304711
aF2.53840421774
aF7.57208146673
aF106.266028041
aF5.57681374745
aF3.22729930593
aF0.691473399594
aF0.0806842409814
aF0.438311763556
aF5.16198840797
aF2.76265303873
aF1.19444038482
a(lp233
F-0.8803231397956746
aF-0.14102088243405062
aF54.8017993743
aF4.15804857301
aF5.79750749101
aF55.0201468178
aF4.63856513631
aF4.46752906941
aF0.430228518826
aF0.184992952506
aF0.372226445375
aF0.468418721785
aF0.204242298826
aF0.133053463241
aF-1.1458048968349925
aF-1.3850401011748241
aF89.6231427831
aF3.82661600741
aF6.14298975268
aF100.599982346
aF11.8341532822
aF8.68174231339
aF1.04475730039
aF0.0944047189627
aF0.293852849066
aF6.96609983212
aF0.895254854774
aF1.10790917781
atp234
S'red-brown'
p235
((lp236
F13.7814478285
aF4.00080327954
aF4.14589469392
aF16.0210519576
aF1.04112246295
aF6.73152598564
aF1.02425549143
aF0.704265915716
aF0.88211575243
aF1.20326369105
aF0.344297641252
aF1.4432147266
a(lp237
F81.1646233145
aF4.6369309389
aF5.6461918496
aF91.5238712066
aF10.0984542952
aF4.21692733099
aF3.48797640768
aF0.624459494114
aF0.60642974294
aF6.05753541859
aF3.24046392124
aF2.9892991457
a(lp238
F57.4237651954
aF3.34386928893
aF4.87754639826
aF59.6445760214
aF5.51679012895
aF3.15444760781
aF2.31442288856
aF0.864949153186
aF0.935617665991
aF2.77701116475
aF0.522691662308
aF0.653811928047
atp239
tp240
a(((lp241
F-2.4073267547818618
aF0.5300978714947863
aF42.8916780487
aF3.84000323588
aF2.71538091987
aF47.6749284425
aF3.35205304226
aF6.23691568946
aF3.60872097785
aF1.18488477427
aF1.001202201
aF2.63527495503
aF0.854123393525
aF0.973502209891
aF-2.4226229068808114
aF-0.03864901571162911
aF29.453051895
aF3.90299466598
aF4.53535892943
aF29.7174269008
aF4.21601066563
aF4.16066532993
aF0.284799296947
aF0.0857258609582
aF0.0975788105691
aF0.205746980091
aF0.0982570707942
aF0.0992308997191
a(lp242
F-0.7570016704844902
aF-1.5453188312781363
aF80.7198064728
aF4.69660700063
aF8.34277659428
aF91.3836882985
aF10.5705448086
aF5.03627138354
aF2.64534083077
aF0.220215551972
aF0.57524912219
aF7.15917916041
aF0.731563156258
aF1.75518505837
aF-1.3450670132238314
aF-0.7755079503984844
aF54.1275268696
aF3.89327620731
aF4.44418925259
aF58.6711298232
aF2.05832726751
aF3.45310753694
aF3.61615776355
aF0.877149906136
aF1.02040839831
aF3.12493874881
aF0.913651820423
aF0.851291939553
a(lp243
F-0.8803231397956746
aF-0.14102088243405062
aF54.8017993743
aF4.15804857301
aF5.79750749101
aF55.0201468178
aF4.63856513631
aF4.46752906941
aF0.430228518826
aF0.184992952506
aF0.372226445375
aF0.468418721785
aF0.204242298826
aF0.133053463241
aF-1.4612797507882782
aF-0.928736619315648
aF89.2641239875
aF4.30773073618
aF3.82151476899
aF93.7622790007
aF1.90979634286
aF4.57236511814
aF2.69870076598
aF0.967925657823
aF1.07932720961
aF2.51922369905
aF0.856043401749
aF0.975405298585
atp244
S'sandy brown'
p245
((lp246
F34.4241537122
aF1.75762601396
aF1.86714533245
aF38.3463493437
aF1.60300808878
aF9.58036566278
aF1.84978689571
aF0.977354526596
aF1.05395350505
aF1.86307246455
aF0.373934638768
aF1.89109270832
a(lp247
F47.4908445823
aF5.53750376083
aF2.51560294261
aF61.6818729358
aF3.83849021154
aF4.4180791972
aF3.57250771463
aF2.04555880173
aF0.707859159981
aF6.17482801398
aF1.21384286396
aF0.932664273093
a(lp248
F70.460289129
aF2.62213866429
aF4.91330490029
aF84.0736011293
aF1.50669725358
aF5.59782905906
aF3.39513333402
aF0.893716270022
aF0.870588674143
aF3.28574327815
aF0.712415769393
aF1.82460730391
atp249
tp250
a(((lp251
F-1.8094532502643337
aF-0.3008373913539264
aF228.499693327
aF4.69826934006
aF7.75317280405
aF228.678331851
aF4.88390073801
aF5.51524242286
aF1.77018187161
aF0.204908480908
aF0.770304524727
aF1.70202348385
aF0.1861943677
aF0.200958443939
aF-1.9495381547278536
aF0.5041958929143568
aF-87.4934821114
aF4.6048541129
aF4.66623712635
aF-86.7751404872
aF3.53757341088
aF9.89501868165
aF1.7680147083
aF0.407618367559
aF0.297826968522
aF1.66603109671
aF0.220434820636
aF0.876842717875
a(lp252
F-0.6320807352964312
aF-1.978023795275336
aF97.8111126167
aF4.71434862919
aF11.684655417
aF101.604886477
aF5.78600352791
aF10.3597846972
aF9.96130612797
aF0.320525943038
aF1.84654822026
aF11.0631131646
aF2.65016734641
aF1.21879744034
aF-1.1874387763458787
aF-2.0
aF101.31174323
aF2.95141775429
aF12.1705860103
aF104.526609959
aF7.79439722621
aF10.8517543976
aF4.30351089274
aF0.0479564939515
aF1.71343623355
aF5.14763925408
aF1.1862700866
aF1.12288467151
a(lp253
F-0.8431604226887838
aF-1.668847269965851
aF92.3260470912
aF3.35399375401
aF11.7554790733
aF100.548402363
aF5.08845636422
aF9.4750369064
aF3.70427579389
aF0.10066356968
aF1.57844010871
aF6.06782100107
aF2.15909015594
aF1.17060791944
aF-1.0951257391326503
aF-2.0
aF100.681158113
aF4.36663174546
aF8.48233313084
aF106.730233534
aF10.2866853835
aF3.16388154253
aF3.80794352228
aF0.155438097844
aF0.7401789204
aF5.85485941797
aF2.45640748498
aF2.00738024021
atp254
S'blue violet'
p255
((lp256
F257.779477412
aF2.26203013307
aF8.03083110276
aF260.874518927
aF2.79978594779
aF4.47849115588
aF1.73140823137
aF0.843605290352
aF2.95329553105
aF1.56802265292
aF0.43260504721
aF0.642927740034
a(lp257
F80.357801345
aF3.71151670538
aF8.07830156657
aF87.911762972
aF10.0881223484
aF6.49477782666
aF6.18056478303
aF0.374704866697
aF2.3048935468
aF6.34975942687
aF1.29966649653
aF1.77776192437
a(lp258
F89.9972708938
aF3.69396987226
aF9.22536660532
aF98.4140504127
aF4.00810673942
aF3.10279088685
aF4.83432359955
aF0.636457817307
aF2.42884994503
aF8.28268194853
aF2.10922024379
aF1.44004336675
atp259
tp260
a(((lp261
F-1.8094532502643337
aF-0.3008373913539264
aF228.499693327
aF4.69826934006
aF7.75317280405
aF228.678331851
aF4.88390073801
aF5.51524242286
aF1.77018187161
aF0.204908480908
aF0.770304524727
aF1.70202348385
aF0.1861943677
aF0.200958443939
aF-2.046313078635247
aF0.07347094043138662
aF-77.2864205649
aF5.29890378774
aF4.74955397321
aF-77.1481946068
aF2.10604557249
aF13.5783325449
aF0.459690817985
aF0.0728051665372
aF0.0507548540137
aF0.46734154156
aF0.353692464146
aF2.59362292373
a(lp262
F-0.8231705797594817
aF-1.8199793374314792
aF89.3779723927
aF4.27755533189
aF10.1629214684
aF93.3297629547
aF8.55602135477
aF6.27675004729
aF3.94839477548
aF0.0935106264409
aF0.887113957453
aF4.62559296786
aF1.22417867028
aF1.27435232151
aF-1.1874387763458787
aF-2.0
aF101.31174323
aF2.95141775429
aF12.1705860103
aF104.526609959
aF7.79439722621
aF10.8517543976
aF4.30351089274
aF0.0479564939515
aF1.71343623355
aF5.14763925408
aF1.1862700866
aF1.12288467151
a(lp263
F-1.0951257391326503
aF-2.0
aF100.681158113
aF4.36663174546
aF8.48233313084
aF106.730233534
aF10.2866853835
aF3.16388154253
aF3.80794352228
aF0.155438097844
aF0.7401789204
aF5.85485941797
aF2.45640748498
aF2.00738024021
aF-1.4640759501892957
aF-1.9931607326392689
aF71.5840637053
aF3.86504000615
aF6.55063757673
aF71.6631569659
aF4.65586232613
aF8.9388317076
aF0.104851171245
aF0.244052781038
aF0.454788051638
aF0.123141363398
aF0.729339642071
aF1.70236227399
atp264
S'blue-purple'
p265
((lp266
F258.491210633
aF2.08103799671
aF9.44247190847
aF260.71683374
aF2.0309761889
aF5.54553701686
aF0.884853793381
aF0.345574454857
aF1.58030123532
aF0.947687504313
aF0.682325927001
aF1.37286953333
a(lp267
F89.8195900583
aF4.96877077964
aF8.54615417576
aF95.0074829312
aF12.3030859694
aF5.86092220177
aF5.53934588206
aF0.487800406786
aF1.27860472579
aF7.52362052782
aF3.20459700489
aF1.22659440793
a(lp268
F94.9707841537
aF3.57029243516
aF10.0467871178
aF101.527146391
aF3.66850596212
aF11.6302795749
aF3.43306643196
aF0.274335790444
aF0.831846278941
aF7.03317890435
aF0.856135434097
aF2.76500721589
atp269
tp270
a(((lp271
F-1.6837443924311255
aF-0.175276250781552
aF120.198371716
aF4.85627364595
aF8.0610705536
aF120.300499387
aF5.49631969092
aF5.90078926466
aF0.272464663682
aF0.146058216508
aF0.324678653675
aF0.275234473199
aF0.190749135435
aF0.18298016778
aF-2.3608632563184284
aF0.005638587693551693
aF172.293578691
aF3.22734340975
aF6.00895733302
aF173.079412691
aF4.38446763929
aF4.29767493925
aF0.685422320787
aF0.333632545317
aF0.638937598042
aF0.593544535957
aF0.309037492888
aF0.300944437153
a(lp272
F-0.8355491232015859
aF-1.859795714671493
aF92.6982673067
aF4.03895107638
aF10.9362585325
aF95.7381506574
aF8.03100659419
aF7.3896774501
aF6.25004307754
aF0.178635451716
aF2.05316495085
aF6.94268647796
aF1.66899507105
aF0.666819333712
aF-1.0545107916828782
aF-2.0
aF107.177169801
aF4.30013928789
aF10.6141361205
aF111.103879186
aF5.23210179217
aF6.38770463134
aF5.81320568884
aF0.0483589915853
aF1.50936999995
aF8.41076708894
aF1.70463725227
aF1.45622606236
a(lp273
F-1.1036243366290333
aF-0.6344499709585749
aF75.3372138987
aF3.270021904
aF7.44102477415
aF75.3830095147
aF4.69821272588
aF7.4229693103
aF0.175095780727
aF0.318337990367
aF0.833333492993
aF0.168944173603
aF0.412035996279
aF0.784368303704
aF-1.5826313246572512
aF-2.0
aF99.0730893644
aF2.34691578795
aF9.7069335469
aF109.909333022
aF5.4683936666
aF4.47716204461
aF0.622275338131
aF0.193984677677
aF0.904013212365
aF6.0700268298
aF1.51795405997
aF1.9834263252
atp274
S'aqua green'
p275
((lp276
F154.341583193
aF2.26254758614
aF7.54950983933
aF157.870274255
aF3.39220157524
aF3.46570727796
aF2.42476257864
aF0.591903667135
aF1.84023565512
aF1.56023331678
aF1.06108194869
aF0.929742400632
a(lp277
F85.9623913376
aF3.9486440464
aF7.90542994482
aF89.9806621902
aF7.51176355396
aF5.0823431368
aF5.32990381584
aF0.878924019001
aF2.49977984352
aF8.19792814051
aF1.90758785194
aF1.27593149704
a(lp278
F88.4392999891
aF2.29363924043
aF7.48634317599
aF101.324422093
aF8.15085799763
aF10.1345363625
aF4.43628128729
aF0.941875074456
aF1.71524781793
aF5.98386103812
aF1.20207816383
aF1.25386752687
atp279
tp280
a(((lp281
F-2.4226229068808114
aF-0.03864901571162911
aF29.453051895
aF3.90299466598
aF4.53535892943
aF29.7174269008
aF4.21601066563
aF4.16066532993
aF0.284799296947
aF0.0857258609582
aF0.0975788105691
aF0.205746980091
aF0.0982570707942
aF0.0992308997191
aF-3.1399008916372586
aF0.45728554910504793
aF42.5507509662
aF0.971774834221
aF6.24274081706
aF46.6566421465
aF2.97906402202
aF2.87685636203
aF1.59374471122
aF0.493188456976
aF1.29386956428
aF3.51840703124
aF1.13147072358
aF0.769802803295
a(lp282
F-0.7570016704844902
aF-1.5453188312781363
aF80.7198064728
aF4.69660700063
aF8.34277659428
aF91.3836882985
aF10.5705448086
aF5.03627138354
aF2.64534083077
aF0.220215551972
aF0.57524912219
aF7.15917916041
aF0.731563156258
aF1.75518505837
aF-1.3452640088180465
aF-1.585614618838854
aF94.2937255282
aF3.31053835696
aF6.9270414363
aF99.6904928534
aF3.82638560788
aF4.57138801623
aF4.47308936288
aF0.913468998127
aF1.07567222035
aF6.88620019184
aF1.45735284845
aF1.24706708372
a(lp283
F-0.8803231397956746
aF-0.14102088243405062
aF54.8017993743
aF4.15804857301
aF5.79750749101
aF55.0201468178
aF4.63856513631
aF4.46752906941
aF0.430228518826
aF0.184992952506
aF0.372226445375
aF0.468418721785
aF0.204242298826
aF0.133053463241
aF-1.7602197950477478
aF-1.6316474727468078
aF89.1273354823
aF2.52640188644
aF2.95553258708
aF107.704702877
aF2.91295413532
aF1.80554748777
aF2.45725085114
aF0.907541254987
aF1.03491015392
aF8.19473777256
aF1.13781613413
aF1.16589377268
atp284
S'golden brown'
p285
((lp286
F39.1986324052
aF1.62808637923
aF4.54856074718
aF41.6427964888
aF2.60393000677
aF4.35795626655
aF2.517965364
aF0.868387215151
aF1.46666869303
aF1.92477432203
aF0.532174880726
aF0.735997529242
a(lp287
F98.0695693222
aF2.92079131278
aF9.32868459611
aF105.108235936
aF10.169264545
aF8.49875918876
aF6.66936146738
aF0.771570881971
aF2.00753305601
aF7.05956236383
aF2.07201514465
aF2.555003502
a(lp288
F65.7772077206
aF1.72601213676
aF5.04269699118
aF72.8614573015
aF5.11975777851
aF2.79096376346
aF3.00249305306
aF1.16705110498
aF1.61817551217
aF2.7668859865
aF2.21337755975
aF0.875201779194
atp289
tp290
a(((lp291
F-1.6837443924311255
aF-0.175276250781552
aF120.198371716
aF4.85627364595
aF8.0610705536
aF120.300499387
aF5.49631969092
aF5.90078926466
aF0.272464663682
aF0.146058216508
aF0.324678653675
aF0.275234473199
aF0.190749135435
aF0.18298016778
aF-2.375302519400239
aF0.08294209566822745
aF171.978931848
aF3.95293253406
aF4.48860211848
aF172.765607008
aF4.39147056684
aF4.38490696239
aF0.489127830722
aF0.135790753768
aF0.211084726103
aF0.542147648209
aF0.16110077639
aF0.217604203943
a(lp292
F-0.8963644759653144
aF-2.0
aF99.4873204047
aF4.29269055013
aF10.2040084366
aF104.09316431
aF10.3851864529
aF8.20966507207
aF5.78601701104
aF0.0836944176566
aF1.52265555363
aF5.93011550644
aF1.56739368357
aF1.16544698129
aF-1.0545107916828782
aF-2.0
aF107.177169801
aF4.30013928789
aF10.6141361205
aF111.103879186
aF5.23210179217
aF6.38770463134
aF5.81320568884
aF0.0483589915853
aF1.50936999995
aF8.41076708894
aF1.70463725227
aF1.45622606236
a(lp293
F-1.1036243366290333
aF-0.6344499709585749
aF75.3372138987
aF3.270021904
aF7.44102477415
aF75.3830095147
aF4.69821272588
aF7.4229693103
aF0.175095780727
aF0.318337990367
aF0.833333492993
aF0.168944173603
aF0.412035996279
aF0.784368303704
aF-1.16418035406183
aF-2.0
aF99.3961802049
aF2.65090721824
aF13.2246585898
aF105.262035034
aF8.71747202094
aF6.14174874144
aF5.08241591167
aF0.0864602931611
aF2.45403241731
aF7.44876920753
aF0.868341527914
aF0.893100266025
atp294
S'turquoise green'
p295
((lp296
F156.577406249
aF2.48912754935
aF5.11509242218
aF162.793832392
aF5.99454565155
aF1.67013542279
aF2.35393172875
aF0.537125401096
aF0.626014381499
aF2.644026708
aF0.68879820304
aF0.630347169459
a(lp297
F79.7110920098
aF2.01156495101
aF12.0551245294
aF86.2065136833
aF7.11302000644
aF4.65833317601
aF3.79349460924
aF0.688600012124
aF3.17867594319
aF3.025194689
aF1.55209011582
aF1.25866077367
a(lp298
F74.2025440721
aF2.01886939816
aF6.66892362449
aF94.3673037502
aF11.6631893359
aF4.83671992316
aF6.52242525603
aF1.24227420863
aF1.89331819723
aF4.70579307088
aF4.59585278817
aF1.21129036861
atp299
tp300
a(((lp301
F-0.5112570890777401
aF-0.15979460056137357
aF141.253067853
aF10.333769125
aF11.8326098285
aF141.625207944
aF4.17002552864
aF26.5086950212
aF3.48638767334
aF0.458789959672
aF0.338534432706
aF3.45262060169
aF1.39571290678
aF8.29782280889
aF-1.7978167723545035
aF0.05986778604383895
aF199.22953761
aF2.92141261385
aF10.8538723985
aF201.297740056
aF2.75806042551
aF12.2969283394
aF6.40953462988
aF0.423502494428
aF3.5127383333
aF6.77006413047
aF0.935816001364
aF1.74820560192
a(lp302
F-1.082278989453096
aF0.42516029852351483
aF21.6275162882
aF4.68398341664
aF2.92045322308
aF22.9596212509
aF3.61827561606
aF6.04666021832
aF2.14994411273
aF1.21556517579
aF1.13956642093
aF2.06416714667
aF0.458552422367
aF1.18215948581
aF-1.49169690911387
aF0.6086512309685767
aF10.1837634054
aF3.9382547588
aF2.01265998786
aF11.3341000631
aF2.81766965775
aF5.87760504528
aF0.753157092936
aF0.345822047594
aF0.471268662656
aF0.516601547378
aF0.0812262674687
aF0.169878662617
a(lp303
F-0.7470958810130831
aF-0.11752712825195862
aF64.1738555206
aF3.95771508574
aF6.87838827912
aF64.6611940517
aF4.58782841055
aF5.20110120972
aF0.466763372131
aF0.306058143626
aF0.727123694077
aF0.49617045069
aF0.217331169954
aF0.200310115107
aF-0.7648443638610718
aF0.08449485541555639
aF54.68812493
aF3.5098327041
aF6.70031637596
aF56.8245537707
aF4.24397986593
aF5.94947805177
aF2.93982089353
aF0.902325069683
aF1.20370012681
aF3.11093394241
aF0.621300119519
aF0.89984469846
atp304
S'slate grey'
p305
((lp306
F188.933023199
aF1.76081221702
aF9.2731046859
aF190.971277368
aF6.37535461544
aF6.79160913199
aF3.35576913039
aF0.423547565125
aF2.03749108729
aF3.41488850341
aF1.41938984123
aF1.00716578697
a(lp307
F17.5998313111
aF4.22872542453
aF3.01904864649
aF20.4103622688
aF2.39283002874
aF7.00650578853
aF1.64302325168
aF0.642633372196
aF0.562973039723
aF1.90127371689
aF0.593441370394
aF1.89786999969
a(lp308
F45.2959617641
aF2.17215464548
aF7.42658815062
aF56.0789608826
aF4.1939240572
aF5.67340178218
aF1.75015459225
aF0.501751989478
aF1.91953008671
aF3.16688903974
aF0.814391379285
aF1.42653924923
atp309
tp310
a(((lp311
F-2.8334551009076123
aF-0.20183869479213268
aF-0.53904651858
aF3.33609155313
aF3.92613873993
aF-0.23659689919
aF3.63769069478
aF2.87271396125
aF0.171918779621
aF0.0842231485141
aF0.0900472019407
aF0.189235254409
aF0.101608771998
aF0.072095779868
aF-2.8746329097068766
aF-0.26063243591772683
aF14.0621829723
aF2.57281364046
aF4.39168023684
aF17.3400633461
aF1.51332866857
aF6.08784227682
aF1.44569333236
aF0.370066973015
aF1.00799013657
aF1.15247426563
aF0.570060547083
aF1.74707725755
a(lp312
F-1.0976375389703388
aF-1.6855975956178668
aF94.6824597306
aF3.66034502896
aF8.45632560968
aF99.9276100213
aF3.86789154379
aF7.36627622788
aF4.81654540987
aF0.270059183276
aF1.40461563318
aF6.26865717448
aF0.819907449153
aF1.19704653364
aF-1.7414738776744567
aF-2.0
aF98.7710304711
aF2.53840421774
aF7.57208146673
aF106.266028041
aF5.57681374745
aF3.22729930593
aF0.691473399594
aF0.0806842409814
aF0.438311763556
aF5.16198840797
aF2.76265303873
aF1.19444038482
a(lp313
F-1.102485350707354
aF-0.23370750108282876
aF69.2550322352
aF2.94878622942
aF6.44826020887
aF72.6816356561
aF3.54740791265
aF4.03487266065
aF1.47523433459
aF0.672588997937
aF1.47673138639
aF1.43207006679
aF0.472207112863
aF0.60722525356
aF-1.1458048968349925
aF-1.3850401011748241
aF89.6231427831
aF3.82661600741
aF6.14298975268
aF100.599982346
aF11.8341532822
aF8.68174231339
aF1.04475730039
aF0.0944047189627
aF0.293852849066
aF6.96609983212
aF0.895254854774
aF1.10790917781
atp314
S'rust red'
p315
((lp316
F3.1671645198
aF2.12986538122
aF4.353148129
aF8.28663364608
aF2.38426410285
aF6.33469765087
aF1.57593112263
aF0.881258568404
aF2.05307027485
aF3.51726889595
aF1.44671599451
aF2.35256475881
a(lp317
F93.7744448278
aF5.85742495295
aF4.2088537865
aF97.8193261859
aF7.471095173
aF3.84466063093
aF3.35755713053
aF0.731814978187
aF0.657253997236
aF3.54890671518
aF1.29687750619
aF1.18433856223
a(lp318
F68.587244784
aF2.73232940231
aF5.65018689348
aF77.4186729445
aF3.87379791778
aF1.87058795578
aF6.04502816858
aF0.926120301891
aF1.14205228127
aF3.72132571413
aF0.944565582248
aF0.76341221682
atp319
tp320
a(((lp321
F-1.098220724010761
aF0.978454359592759
aF224.249629325
aF4.20547806715
aF7.20542319204
aF230.400963705
aF8.02861816871
aF11.3252501133
aF5.49698915669
aF2.05984504405
aF1.06436800302
aF4.49589602228
aF1.74695244437
aF1.34597164107
aF-1.8094532502643337
aF-0.3008373913539264
aF228.499693327
aF4.69826934006
aF7.75317280405
aF228.678331851
aF4.88390073801
aF5.51524242286
aF1.77018187161
aF0.204908480908
aF0.770304524727
aF1.70202348385
aF0.1861943677
aF0.200958443939
a(lp322
F-0.30385281440318157
aF0.8254515352568166
aF41.9119525431
aF4.02385956787
aF5.39408997544
aF45.6861151505
aF6.60488759335
aF8.05747465498
aF7.16783851608
aF1.59031754374
aF2.48730993147
aF7.6036123584
aF0.943367285338
aF1.11657336734
aF-1.1874387763458787
aF-2.0
aF101.31174323
aF2.95141775429
aF12.1705860103
aF104.526609959
aF7.79439722621
aF10.8517543976
aF4.30351089274
aF0.0479564939515
aF1.71343623355
aF5.14763925408
aF1.1862700866
aF1.12288467151
a(lp323
F-0.6589707410653706
aF-0.2079427427113618
aF53.5605412217
aF2.27191357211
aF13.1788211461
aF59.7956933379
aF3.37087814371
aF6.63193730931
aF2.25534089012
aF0.897613618334
aF3.79641998393
aF4.04774807656
aF1.10653855135
aF1.27346718673
aF-1.0951257391326503
aF-2.0
aF100.681158113
aF4.36663174546
aF8.48233313084
aF106.730233534
aF10.2866853835
aF3.16388154253
aF3.80794352228
aF0.155438097844
aF0.7401789204
aF5.85485941797
aF2.45640748498
aF2.00738024021
atp324
S'dusk blue'
p325
((lp326
F219.715330506
aF5.97072336137
aF4.53285235989
aF222.902181338
aF4.04671371063
aF4.51827615571
aF1.54199383751
aF0.970266841095
aF0.881336490823
aF1.8584238676
aF0.791310168432
aF1.02631354048
a(lp327
F56.53883597
aF2.1298571941
aF6.13928906259
aF64.8952729514
aF9.14898956353
aF4.16926984938
aF6.4181093674
aF0.925760020722
aF0.821825536036
aF6.84343686188
aF2.04804439176
aF0.631744298163
a(lp328
F51.2536396555
aF7.75969083853
aF2.32709920314
aF65.4659476561
aF3.84777397023
aF6.99680462156
aF7.01641249868
aF1.27877301217
aF1.14163459637
aF2.50733420106
aF1.18154270177
aF1.32185656277
atp329
tp330
a.