(dp0
S'ocean blue'
p1
(lp2
F209.674882506
aF4.3177858052
aF7.2490189611649996
aF211.72739258849998
aF3.779461000115
aF5.95751192037
aF2.1580611179
aF0.5508772143915001
aF0.9235467165485
aF2.246620917015
aF0.467557375442
aF0.7673645521645
aF92.1332166883
aF2.59177217005
aF10.841550739685
aF97.63761213034999
aF6.846202990715
aF8.161283417965
aF6.32198103055
aF0.32059107069575
aF2.24973869382
aF5.188154413785
aF1.092925084105
aF1.595559075235
aF86.3649046936
aF4.0950224437500005
aF8.482469918205
aF91.42914963620001
aF7.0715227047700004
aF5.668728321385
aF3.87118592958
aF0.759624103822
aF1.790303566495
aF4.520689356055
aF1.566424889247
aF1.379823783355
asS'sea green'
p3
(lp4
F144.4861335045
aF4.646803814575
aF7.616719442660001
aF146.957397828
aF4.543775600655
aF8.84678293803
aF2.8070490607610004
aF0.601652947759
aF0.6703756864825
aF1.9081780163995001
aF0.7480721518025
aF1.833945748985
aF84.2290011655
aF3.851717663305
aF8.42449985253
aF91.96131086495001
aF6.562269921085
aF6.708440504135
aF4.360643891465
aF0.37528208941665
aF1.38162959589
aF6.973927533155
aF1.385977007445
aF1.511538727945
aF77.85011394385
aF3.4002624264700003
aF7.059026178665
aF80.41773426290001
aF5.47294112313
aF9.387749329
aF2.3009824080785
aF0.7407467114885
aF1.5502318703015
aF2.0287035838615
aF0.7598215192894999
aF1.276249172442
asS'royal purple'
p5
(lp6
F85.00678073005
aF7.181639657465
aF4.256465560275
aF88.80554533809999
aF5.904642415795
aF8.4540304521
aF3.0572094419174998
aF1.3737292013586
aF0.44976764443285
aF5.0218956139049995
aF0.911629699823
aF1.87875727525
aF91.0176896489
aF3.51491862132
aF8.824232018885
aF97.60540320084999
aF6.8478351556
aF8.510583006245
aF4.027531472775
aF0.30792957608445
aF1.5619714516315
aF5.580340771735
aF1.51713432766
aF1.55874378217
aF63.9439174157
aF3.798207123405
aF5.342676532980001
aF69.6940448503
aF6.4690025350500004
aF8.350009703725
aF2.2985445122875
aF0.676427501319
aF0.6404212690595
aF1.522863569339
aF0.9429983162505
aF1.3293363753905
asS'olive brown'
p7
(lp8
F48.4298903547
aF3.7299746820750004
aF4.603685020445
aF49.077503757200006
aF3.451221979795
aF5.82408737921
aF0.5580252854284999
aF0.1630057702451
aF0.28226425047055004
aF0.4539247760935
aF0.21418195243809998
aF0.57000310161455
aF76.1309705688
aF4.544135903155
aF8.696823692285001
aF82.61624292185
aF8.36337035489
aF6.618958259135001
aF1.915509035165
aF0.5335882951065
aF1.41614921504
aF4.463288501395
aF1.0339352057289999
aF1.74076604596
aF56.79574388475
aF3.4998677389850004
aF6.644964745615001
aF57.54480913905
aF3.89255734334
aF5.523963555565
aF0.5385123771145
aF0.273808871857
aF0.6914621695775
aF0.49618440777899997
aF0.23665229879600003
aF0.3675088588295
asS'grey-brown'
p9
(lp10
F85.353059874
aF7.11838189549
aF8.183984378965
aF85.67131742240001
aF4.193018097135
aF15.334680175565001
aF1.8855934851435
aF0.2722579103151
aF0.21805662163755
aF1.8291837908905
aF0.7469849887871001
aF4.19852685430455
aF45.4517849391
aF4.317430879715
aF5.177718291070001
aF51.3588941808
aF6.694107233175
aF5.45693821441
aF1.699248961853
aF0.283018799783
aF0.5232588924229999
aF3.837890353894
aF0.40639471186334997
aF0.9625318604934999
aF59.48782744745
aF4.057881829375
aF6.337947885065001
aF59.840670434749995
aF4.6131967734299995
aF4.834315139565
aF0.4484959454785
aF0.245525548066
aF0.549675069726
aF0.4822945862375
aF0.21078673439
aF0.166681789174
asS'lemon lime'
p11
(lp12
F73.1495094936
aF3.958390716255
aF3.2362157208099998
aF75.01998934525
aF1.8676613789199998
aF10.409635597434999
aF1.889877268565
aF0.6109697407345
aF0.8131265079265
aF1.798341756185
aF0.352686445943
aF1.8315895803700002
aF84.21733187859999
aF3.766547736335
aF7.839448454405
aF88.8590532578
aF5.81918840988
aF7.757342866949999
aF3.5136396698950003
aF0.46347069488000003
aF0.8773150666045
aF5.39438099605
aF1.512451018355
aF1.3102910831769998
aF98.07104751739999
aF2.23257939848
aF6.185219260049999
aF110.483324513
aF7.50915096952
aF7.398677572915
aF1.045782995444
aF0.348232767416
aF1.059655218251
aF4.355281251925
aF2.5801762128
aF1.5504963252200001
asS'puke yellow'
p13
(lp14
F61.1113682805
aF3.80091263542
aF4.030032161415
aF63.551303955799995
aF2.8669203213300003
aF3.93355785603
aF0.8885331579005
aF0.39659265758999995
aF0.40359566120215
aF0.9479749888105
aF0.6885636541775
aF0.793271861603
aF96.20994551905
aF3.594996500465
aF10.32185053237
aF102.6249803975
aF6.64502488994
aF5.801758605390001
aF4.618225779105
aF0.2697127312935
aF1.6082851504845002
aF7.902182954935
aF1.2216245160249999
aF1.703432097275
aF86.0801313548
aF2.809380494085
aF5.339813446115
aF92.76636113025
aF5.0344234562
aF4.804492556025
aF1.1225710644755
aF0.26020493794665
aF0.6425056851575
aF3.315268866955
aF1.472581526875
aF1.8766260854349999
asS'purple grey'
p15
(lp16
F31.983323644050003
aF7.816336456369999
aF8.291081900855001
aF32.2385066686
aF3.138035550565
aF20.043513783050003
aF1.9730392456624999
aF0.2657975631046
aF0.19464464335985
aF1.9599810716250001
aF0.874702685463
aF5.44572286631
aF49.78086789905
aF4.107905045345
aF6.087790728130001
aF52.3319315089
aF5.686845506259999
aF6.077177546285
aF2.350775934208
aF0.21966633701744998
aF0.6791913100545
aF2.5710972576190003
aF0.65270246887435
aF0.7221154920635
aF67.87895961295
aF3.911377545945
aF6.714512927925
aF68.1621755088
aF4.621845368340001
aF7.06996645866
aF0.285807271688
aF0.27505546233199996
aF0.5909558728575
aF0.309655907044
aF0.4733354060125
aF0.9513361945484999
asS'apple green'
p17
(lp18
F100.6404395953
aF4.07928750572
aF6.3896985254850005
aF106.12258608675
aF4.390737767
aF7.7049897802950005
aF3.9406688397060003
aF1.220739365219
aF1.0976832498525
aF1.9887883665395
aF0.6109036415075
aF0.7800247730850001
aF90.72460569565001
aF3.75734340354
aF7.919198062985
aF97.0339060393
aF6.216142433865
aF4.974547466025
aF4.359064748195
aF0.43413353579915
aF1.361581267005
aF7.356954213285
aF1.4728392290349999
aF1.353221107275
aF79.47388473875
aF2.696239454185
aF7.232133850029999
aF80.9977745723
aF6.848603732920001
aF5.10128580608
aF1.1867565402135
aF0.4325136521795
aF0.9031227802349999
aF1.2870645288015001
aF1.0412014169045
aF0.807514198481
asS'pink-purple'
p19
(lp20
F-54.00132635485
aF5.04340434939
aF5.557881910120001
aF-53.86448199975
aF3.462991772925
aF9.31478824232
aF0.447370790538
aF0.1815029908391
aF0.28538041648885004
aF0.4605489431
aF0.253023827509
aF1.33608240958095
aF73.81102192615
aF4.430042660730001
aF8.28029795329
aF75.82997877465
aF6.548949575529999
aF7.951697724475
aF2.0347054155525
aF0.19351219879795
aF0.672059502951
aF2.373242055664
aF0.9387250946795
aF1.3952099632950001
aF83.97470993325
aF2.7784112964750003
aF7.146069241165
aF86.04882804745
aF5.41954972768
aF6.0099466524550005
aF0.2536532523415
aF0.1309975119838
aF0.395234164837
aF1.102428992779
aF1.4409893426005
aF1.2509700811625
asS'violet red'
p21
(lp22
F-44.016264314989996
aF3.970472833015
aF4.296187933140001
aF-43.505868693195005
aF3.58763205283
aF6.38386632145
aF0.9699667439605
aF0.24592075803655
aF0.19393708523135
aF0.9276331755595
aF0.161021796317
aF0.4744692488715
aF98.2910715439
aF3.626376423465
aF9.628368441865
aF103.935457259
aF5.681408637680001
aF6.793542001565
aF5.326389763782
aF0.2006050920097
aF1.142429991908
aF8.112550786285
aF2.70641019257
aF1.20661891258
aF90.97459493714999
aF3.59030488071
aF8.94923441299
aF100.5741923545
aF8.46130482321
aF9.078389609895
aF2.37451654714
aF0.09753414432134999
aF0.936146478888
aF6.516960416595
aF1.527172505357
aF1.139258548625
asS'green-blue'
p23
(lp24
F174.3490325215
aF4.777271493005
aF7.907121678825
aF174.489415619
aF5.190110214465
aF5.70801584376
aF1.021323267646
aF0.175483348708
aF0.5474915892009999
aF0.9886289785244999
aF0.1884717515675
aF0.1919693058595
aF104.2444565155
aF3.62577852109
aF11.3923610654
aF107.8152445725
aF6.5132495091900005
aF8.61972951447
aF5.05835829079
aF0.0481577427684
aF1.61140311675
aF6.77920317151
aF1.445453669435
aF1.2895553669350002
aF88.00918600585
aF3.81832682473
aF7.961678952495
aF91.05662152435
aF7.492449054690001
aF5.293425426415
aF1.9915196515035
aF0.23688804410550002
aF0.7867562066964999
aF3.0119017957865
aF1.4342217406295001
aF1.3958742719569999
asS'vomit green'
p25
(lp26
F90.26702273104999
aF4.618566786260001
aF5.83660205176
aF92.5170928771
aF4.03984345715
aF5.6857908175950005
aF1.343495762416
aF0.636922944529
aF0.631410771959
aF1.3292767644095
aF0.42543964575250004
aF0.5552708650829999
aF99.20327552355
aF6.089585057380001
aF7.729873289695
aF104.44235775715
aF8.311689327585
aF7.070373318030001
aF7.65514332634
aF0.5216048038651501
aF1.487100809825
aF8.495602467165
aF1.957023454505
aF2.129669598615
aF72.88405106245
aF2.45110901435
aF8.925212663324999
aF76.4045233688
aF3.84458058288
aF5.8406490805
aF1.5032926098685
aF0.46220076414449995
aF1.4083071998665
aF1.1030269178865
aF0.5454192066765
aF0.7650143543885
asS'vomit yellow'
p27
(lp28
F59.921366912050004
aF4.03094751665
aF3.51985908427
aF62.71014305244999
aF2.3996599492049997
aF4.6247431011549995
aF1.3581977347605
aF0.6253595898365
aF0.5137956671756501
aF1.4512946942005
aF0.4812099255075
aF0.643580414556
aF92.28063012724999
aF5.625005162105
aF7.286727236165
aF100.59561009365001
aF9.303608312455
aF6.764241708855
aF5.49493196852
aF0.5613427990700001
aF1.1432453249445
aF7.935625464835
aF1.7900178955600001
aF2.147109429545
aF83.950624405
aF2.13234546013
aF6.99082614745
aF92.30235437545
aF5.30847891545
aF3.374609396775
aF1.5597876182805
aF0.35073128893315
aF1.0632595768025
aF2.93965557115
aF1.268855693002
aF0.9879712149865
asS'green-yellow'
p29
(lp30
F89.852715897
aF4.26865437634
aF5.74432758611
aF90.49354956235
aF3.856136182975
aF4.83974154822
aF0.2871666360265
aF0.1344948618155
aF0.20706354889165
aF0.39725240299
aF0.24651941519
aF0.271289717253
aF100.25452440469999
aF3.835559392615
aF10.170990066969999
aF107.2571315225
aF6.22402077704
aF6.081573022165
aF3.65299433102
aF0.08809698679015
aF1.1655145150695
aF7.85079008661
aF1.5376316933249998
aF1.4736658932900002
aF86.40378724125
aF2.95125834978
aF5.506638258275
aF91.28084052135
aF6.16211105845
aF4.9569296265750005
aF0.231590789139
aF0.20686851515565
aF0.48828586992899997
aF2.0055728268665
aF1.1354724826045
aF1.007325164302
asS'shit green'
p31
(lp32
F73.5418464153
aF3.60195856622
aF5.684530973935001
aF76.9922305668
aF4.571839930805
aF6.700159960775
aF1.586855298041
aF0.880433122019
aF0.9056421580174999
aF1.9326304272895
aF0.3689065560335
aF0.527317705958
aF94.78244010815001
aF3.7015735347700005
aF9.737147586285
aF102.899816555
aF7.19751289015
aF5.514495242185
aF4.57206118902
aF0.55102883003265
aF2.0414529210400003
aF9.181644419400001
aF1.2695337620184999
aF1.187420402511
aF70.45847776229999
aF4.876752220735
aF5.80291647748
aF72.1061278341
aF3.9694512624050002
aF7.0142625683599995
aF1.2210823911285
aF0.6632209053835
aF0.706627476807
aF1.3417711052565
aF0.5626916543235
aF0.999070360797
asS'lime yellow'
p33
(lp34
F71.0185783498
aF4.111133892085
aF3.3370088255450003
aF72.08993499235
aF2.26803900599
aF8.79075658899
aF1.2328367913755
aF0.4078716383145
aF0.31979785950065
aF1.3122008046654998
aF0.2759666445665
aF1.2253022016630002
aF96.8600932272
aF3.5991408204199997
aF9.726948118685
aF104.5301879775
aF7.299252644335
aF6.6583483835349995
aF3.17357976534
aF0.24894960596550003
aF0.779470360399
aF7.6707792838049995
aF1.5159502216499998
aF1.147582207557
aF98.4190761952
aF2.860513939545
aF4.63758650454
aF108.158277071
aF8.383171599825001
aF5.603335311425
aF0.5196284348295
aF0.13090993971415
aF0.2420761852785
aF4.36532030522
aF2.808835336985
aF1.349664076825
asS'violet pink'
p35
(lp36
F-59.1048571281
aF4.69637951197
aF5.51622348669
aF-58.67795493995
aF4.17875569212
aF7.473131310695001
aF1.1015327356955
aF0.34890959135
aF0.408916473743
aF1.059893720675
aF0.186395005754
aF0.47769230665345
aF78.02759203815
aF4.6484393093800005
aF9.04116492759
aF79.9675405358
aF5.1639406621
aF9.993215049429999
aF5.0411610917975
aF0.30701985709650004
aF1.1517766343545
aF5.592002154034001
aF1.6517194327445
aF1.36743252271
aF94.3457016262
aF2.5228881704050004
aF9.74848998945
aF100.491450746
aF5.635846746725
aF6.278049251855
aF2.053365563664
aF0.05930290630479999
aF0.957060193373
aF4.074768811615
aF2.155864599535
aF0.9850929038875
asS'blue-grey'
p37
(lp38
F184.87638059
aF7.516019232530001
aF9.792891316275
aF185.1517698975
aF4.526963133325
aF16.01196872203
aF2.628284772475
aF0.33184922028999997
aF0.5544194787165
aF2.57732204277
aF0.79095363724
aF4.2493906264145
aF55.7477533177
aF3.444836256545
aF7.09162299908
aF57.93035501105
aF5.30603344198
aF8.36467972144
aF2.528333992838
aF0.19688927077274998
aF1.092352448103
aF2.832120400729
aF0.63374817703435
aF0.6463816670635
aF82.42750681679999
aF4.1621734156
aF7.68036070498
aF85.69571379285
aF7.437256897025
aF4.182491376125
aF2.1373534472055
aF0.230748120735
aF0.7336513072385
aF3.17551493433
aF1.336869327467
aF1.1038451776584999
asS'indigo blue'
p39
(lp40
F243.67068303599999
aF3.5651929463250003
aF7.751305403405
aF244.5685634365
aF3.9098868020650004
aF4.95450771304
aF1.260446925961
aF0.223006635828
aF0.856659611802
aF1.450124003995
aF0.3782140499815
aF0.363987474258
aF97.7165502371
aF3.7127955389049996
aF10.792077855515
aF100.79977596
aF6.316368708785
aF9.558104988165
aF4.05182832527
aF0.10902448705025
aF1.461697387265
aF4.47852997446
aF1.337309103925
aF1.299365786035
aF88.12209746355
aF4.94365429794
aF7.5816532834100006
aF92.0691589574
aF7.152023092255
aF6.486567975034999
aF2.894195251965
aF0.2632933237585
aF0.7084124309775
aF3.9185532001250003
aF1.6236053028250002
aF1.88162076287
asS'seafoam blue'
p41
(lp42
F188.9186583855
aF3.2927666386550003
aF9.192058444575
aF191.135252081
aF4.4393236130250004
aF5.0117249174400005
aF1.9745579221349998
aF0.3572760624725
aF1.3835542215485
aF1.44009269519
aF0.37954486937599996
aF0.42825503298
aF72.3393160434
aF2.789939574365
aF10.640412512405
aF74.58610830555
aF5.64193470441
aF13.04060010455
aF3.261843027145
aF0.42928227317525003
aF1.846479107355
aF3.8526260771449996
aF0.9553388010135
aF2.595984085365
aF99.7531452736
aF3.4122933957150003
aF8.92330149695
aF107.37300512
aF7.9263334642
aF4.44800729417
aF2.339594517497
aF0.17957191257400001
aF0.8180571729695
aF4.398396270455001
aF2.18158307905
aF1.499720890548
asS'aqua blue'
p43
(lp44
F200.396636009
aF3.962806374905
aF6.881065068534999
aF200.87887227099998
aF4.63418418865
aF4.906458681055
aF1.2278020961985
aF0.2692705131125
aF0.7046210613845
aF1.1477840099035
aF0.24761593029399998
aF0.250951440546
aF97.00500526835
aF3.4951844153350002
aF11.553422271399999
aF100.1323803082
aF7.9127019102
aF9.12071592385
aF5.27677698514
aF0.11329597283375001
aF1.8833005922
aF6.04516286602
aF1.427632578825
aF0.8948520026110001
aF99.87712373869999
aF3.3567737667050004
aF9.09463333887
aF108.319783278
aF7.87753952505
aF3.82052179357
aF2.2151094302055
aF0.1747113877605
aF0.8220960663825
aF5.962443123885
aF1.9871807724750001
aF1.995403282705
asS'brown-green'
p45
(lp46
F74.82571180549999
aF4.379634155965
aF6.298214741515
aF75.0089631439
aF4.856165178275
aF5.030727297295
aF0.2786319803145
aF0.1158920387331
aF0.21112873212205
aF0.240490726645
aF0.1445031031146
aF0.14110553374955
aF93.94848813690001
aF4.49837314426
aF9.47845635739
aF101.24378374225
aF7.901323300385
aF5.7119880074400005
aF4.229273259805
aF0.13428727177865
aF1.0423095610700002
aF7.784973124675
aF1.218100204264
aF1.6057055603650001
aF65.0695066365
aF3.714035238505
aF6.61926613258
aF65.20157816625
aF4.668388931095
aF5.945249189855
aF0.30266214977649997
aF0.2516654714365
aF0.602779969184
aF0.318681447694
aF0.3081391475525
aF0.4587108834725
asS'red-purple'
p47
(lp48
F-38.912733541739996
aF4.317497670434999
aF4.33784635657
aF-38.692395752995004
aF2.871868133635
aF8.225523253075
aF0.315804798803
aF0.07851415752565
aF0.07040102797719999
aF0.3282883979845
aF0.227650618072
aF1.332859351799
aF94.0745014319
aF3.4079797748150003
aF8.867501467565
aF99.79789549784999
aF7.06641755111
aF4.7520246766100005
aF2.3199340875370003
aF0.08709743371115
aF0.6627128605045001
aF4.893790687915001
aF1.9934158545049998
aF1.2343963531650002
aF80.6036032442
aF3.84582800678
aF6.3468136647049995
aF86.13156965595
aF8.245007804165
aF8.810287010495
aF0.5748042358175
aF0.16922875000034998
aF0.374320450352
aF3.544620597759
aF0.8122972484225
aF1.4051357259000001
asS'green-brown'
p49
(lp50
F74.82571180549999
aF4.379634155965
aF6.298214741515
aF75.0089631439
aF4.856165178275
aF5.030727297295
aF0.2786319803145
aF0.1158920387331
aF0.21112873212205
aF0.240490726645
aF0.1445031031146
aF0.14110553374955
aF93.94848813690001
aF4.49837314426
aF9.47845635739
aF101.24378374225
aF7.901323300385
aF5.7119880074400005
aF4.229273259805
aF0.13428727177865
aF1.0423095610700002
aF7.784973124675
aF1.218100204264
aF1.6057055603650001
aF65.0695066365
aF3.714035238505
aF6.61926613258
aF65.20157816625
aF4.668388931095
aF5.945249189855
aF0.30266214977649997
aF0.2516654714365
aF0.602779969184
aF0.318681447694
aF0.3081391475525
aF0.4587108834725
asS'rose red'
p51
(lp52
F-8.14443687014
aF3.314189059225
aF4.374658123794999
aF-7.173829131044999
aF3.5700354705799997
aF4.18377648736
aF0.49730125548549997
aF0.19548299965105
aF0.24964514087984999
aF0.6495235407094999
aF0.2737110790115
aF0.5085833939355
aF76.6126393374
aF4.05831057586
aF6.066187828095
aF81.0198263957
aF3.83998260162
aF8.362152133865
aF0.8626816220669999
aF0.39980614341320003
aF0.5651301051395
aF3.017239976923
aF1.54459163229
aF1.664432180885
aF88.27908663585
aF3.94128267054
aF5.158695642630001
aF94.23864058665
aF7.545274452495001
aF7.66312237957
aF1.153673647455
aF0.25016347679835
aF0.2941299695845
aF4.07912635284
aF0.822365562947
aF1.326949972475
asS'brown-orange'
p53
(lp54
F27.15106293435
aF3.886777902645
aF3.98423589296
aF27.7995995892
aF4.225042038194999
aF3.7752573236849996
aF0.309930593796
aF0.0986010243131
aF0.10680433921804999
aF0.3206440072465
aF0.0988355009715
aF0.10889625466905001
aF87.2294741549
aF3.6583363324550002
aF8.455454533645
aF95.95756331475
aF9.66821125186
aF4.80035535381
aF1.907319160155
aF0.1570929444172
aF0.486785570039
aF5.838698029865
aF0.8244962669989999
aF1.5420286274400001
aF75.9118645106
aF3.35796781748
aF5.6673245018700005
aF77.8796842614
aF6.92505230622
aF5.095440598105
aF0.5153819839035
aF0.1162492146966
aF0.3416031157645
aF1.5927237833625
aF1.1242194670630001
aF1.0705164491555001
asS'golden yellow'
p55
(lp56
F51.028905522100004
aF2.3264049704755
aF4.835162717839999
aF53.6716209421
aF2.5975083485250003
aF3.327775096905
aF0.9478066597955
aF0.3080599820495
aF0.6916590041941499
aF2.0188386820105
aF0.7168802092625
aF0.5647010350105
aF93.8128022683
aF3.34075892715
aF8.32744272487
aF101.5504383562
aF5.521162684895
aF5.173414714610001
aF2.9829361680399997
aF0.520651990061
aF0.9486656252695
aF7.08850663806
aF1.413989491415
aF1.36908640397
aF93.29884803305
aF2.579448341
aF3.26389216474
aF107.44168720249999
aF5.26948176317
aF2.14821871531
aF1.3726683243455
aF0.50147014746565
aF0.5890742003925
aF6.018469626345
aF1.49836255153
aF1.1980878987899999
asS'navy green'
p57
(lp58
F173.589671356
aF4.249179374245
aF7.6205444111
aF174.526113249
aF4.7081539263700005
aF6.56696557542
aF0.6451957851810001
aF0.30668961092799996
aF0.6732129696725
aF0.6713204936995
aF0.27882483038899997
aF0.439262020452
aF103.853721784
aF3.696635824385
aF12.13099970505
aF107.584560264
aF9.910987955185
aF7.22071977384
aF5.81444896066
aF0.12833987264115002
aF2.1017612273050004
aF7.71437474014
aF2.147284452135
aF1.583305350975
aF55.55102088465
aF3.4505676746300002
aF5.93043650086
aF55.92348449095
aF3.973881848295
aF6.893461669085
aF0.48702646223900004
aF0.323147474557
aF0.6052288830229999
aF0.485135882332
aF0.337568396735
aF0.6838474032040001
asS'steel blue'
p59
(lp60
F206.898103944
aF4.398849031155001
aF6.14533423492
aF209.886600593
aF6.183376100195
aF6.11788194765
aF2.079054003225
aF0.907754950369
aF1.2117529001235
aF2.51746278358
aF0.78502961922
aF0.6325053292895
aF61.759200528150004
aF2.7855336610099997
aF9.956095702019999
aF64.7132270176
aF5.909184707165
aF7.109324403315
aF3.007416144675
aF0.35949283498525003
aF1.64881124339
aF3.5520314645449997
aF1.2893199390949999
aF1.047938263826
aF79.14941773005
aF3.0804248263100003
aF8.58603587536
aF84.7995307904
aF6.755802455825
aF4.245122753205
aF3.190842494345
aF0.303219858048
aF1.01812555298
aF5.08790689422
aF1.73863129044
aF1.363394253508
asS'orange-yellow'
p61
(lp62
F42.17806702585
aF3.77579812302
aF3.430348737555
aF43.28418600765
aF3.225013042895
aF3.58427157461
aF0.31846524950800004
aF0.1172038473955
aF0.10273915598764999
aF0.4774056835915
aF0.2008518130469
aF0.23908043817250002
aF93.5355104227
aF2.9955225808100003
aF9.147988243225
aF101.970911095
aF7.9909087285150004
aF5.169940368535
aF1.3310402313699998
aF0.1109026594287
aF0.6099905240385
aF5.904514991799999
aF1.1440277560599998
aF1.4099889603650002
aF97.24614511535
aF2.5951909287549997
aF4.554696627565
aF103.9589466165
aF8.418774433574999
aF4.107121034825
aF0.444310623266
aF0.07145225841575001
aF0.2271090165095
aF3.2796151625350003
aF1.9515528021150002
aF1.6191307299850002
asS'grey blue'
p63
(lp64
F184.87638059
aF7.516019232530001
aF9.792891316275
aF185.1517698975
aF4.526963133325
aF16.01196872203
aF2.628284772475
aF0.33184922028999997
aF0.5544194787165
aF2.57732204277
aF0.79095363724
aF4.2493906264145
aF55.7477533177
aF3.444836256545
aF7.09162299908
aF57.93035501105
aF5.30603344198
aF8.36467972144
aF2.528333992838
aF0.19688927077274998
aF1.092352448103
aF2.832120400729
aF0.63374817703435
aF0.6463816670635
aF82.42750681679999
aF4.1621734156
aF7.68036070498
aF85.69571379285
aF7.437256897025
aF4.182491376125
aF2.1373534472055
aF0.230748120735
aF0.7336513072385
aF3.17551493433
aF1.336869327467
aF1.1038451776584999
asS'puke brown'
p65
(lp66
F46.084364189
aF3.911892415045
aF4.583919316819999
aF48.06671753735
aF3.86694931663
aF4.124543605105
aF0.8799985021885
aF0.3779898345076
aF0.40766084443255
aF0.7912133124655001
aF0.5865473421021
aF0.66308767809955
aF89.90390925125
aF4.25781025211
aF9.629316822789999
aF96.61163261725
aF8.322327413284999
aF5.432173590665
aF5.19450470789
aF0.315903016282
aF1.4850801964850002
aF7.836365993
aF0.902093026964
aF1.8354717643499998
aF64.74585075005001
aF3.5721573828100004
aF6.45244132042
aF66.68709877514999
aF3.5407013288449996
aF5.792812119305
aF1.193642425113
aF0.3050018942275
aF0.7569997844124999
aF1.6283774877825
aF0.645248191823
aF1.3280118046055
asS'purple-brown'
p67
(lp68
F-23.91668433495
aF4.60094922686
aF4.64245645132
aF-23.715383853000002
aF3.16102811906
aF8.869498937414999
aF0.372245057466
aF0.0792655137477
aF0.0741668322914
aF0.33654426082550004
aF0.22597476747009998
aF1.34642691172455
aF85.04888943275
aF4.48708116626
aF9.25284903134
aF92.3567256266
aF9.563283081685
aF5.656510715415
aF3.296867803125
aF0.15686308920644998
aF0.7311815398215
aF5.892386064135
aF0.977870913269
aF1.51476868994
aF63.1929315398
aF4.01154428958
aF6.1740725338699995
aF63.34165189185
aF4.64721373122
aF6.703180388505
aF0.2675398450355
aF0.214522866772
aF0.4135072485065
aF0.2957800425915
aF0.4667909704485
aF0.9177078686155
asS'brick red'
p69
(lp70
F3.44359835382
aF3.070481614895
aF4.343072027494999
aF4.504256994475
aF3.2001490531199996
aF3.48248706585
aF0.7754311243205
aF0.26235243853955
aF0.35756411644535
aF0.6512630442095
aF0.3558392284945
aF0.4298482300675
aF90.71268851880001
aF3.616401025665
aF7.071971481895
aF98.2267879102
aF5.886579296295
aF5.98500751892
aF2.1581340922520003
aF0.17907148763019998
aF0.6440707422805
aF5.213957944640001
aF2.152525812805
aF1.33976303801
aF77.33401406339999
aF3.755605219165
aF5.401789443145001
aF84.5006035528
aF8.233324777575
aF6.32715844904
aF1.958006883395
aF0.57982416815635
aF0.572185781689
aF4.25135647067
aF0.7225377111685001
aF0.8523954056935
asS'tan brown'
p71
(lp72
F34.906140548850004
aF3.7435971399200003
aF4.320808113275
aF35.24777698835
aF3.72679696684
aF4.468779205144999
aF0.355363623429
aF0.2571680106056
aF0.36417766910655003
aF0.3426667727795
aF0.1975108963261
aF0.29035276999555
aF64.72052045685
aF4.368356905980001
aF7.14465277069
aF70.5695452995
aF6.6987996095449995
aF6.562473936609999
aF1.7625002220155
aF0.2992892077855
aF0.668417879714
aF3.9753096674825
aF0.575895964461
aF1.4693101734199998
aF68.2933506393
aF3.79061470306
aF5.116396549265
aF68.53211053205
aF4.20263787831
aF4.57459639769
aF0.41401743741700003
aF0.26797118976150003
aF0.4813017156545
aF0.44706274660699996
aF0.196404419356
aF0.2103216205665
asS'sandy yellow'
p73
(lp74
F51.199369063350005
aF3.760519171305
aF3.0714827692449997
aF54.1807640901
aF2.784002858645
aF5.00780476062
aF1.9552947931105
aF0.6539081406964999
aF0.5453253225541499
aF1.5772726439054998
aF0.578206544235
aF0.6665507383085
aF73.72970293899999
aF3.632127852325
aF7.086016633015
aF81.0407568411
aF4.6371335147099995
aF4.614274474965001
aF2.554470368375
aF0.5024924440655
aF0.9210337142495
aF5.2078759165449995
aF1.1421389774014998
aF1.1711988318865
aF93.36724228565001
aF3.4701127658699997
aF3.696883255695
aF100.47047526435
aF4.76790286694
aF3.531627530495
aF1.4933932817655
aF0.53166234888365
aF0.6112827282375
aF3.1807125895899997
aF1.3574761853394999
aF1.1028436617425
asS'shit brown'
p75
(lp76
F28.169186504800003
aF3.125319076235
aF3.92167516185
aF31.7006943237
aF3.93168541816
aF5.83009799341
aF1.5930226146735
aF0.8502669442441
aF0.79209223646455
aF1.8978866807355
aF0.3226605237131
aF0.48544307192755004
aF81.55375844405
aF3.8998073911400004
aF8.601467823175
aF93.03972111125
aF9.866734398365
aF4.838778618285
aF2.988128759985
aF0.636957110226
aF1.57439248216
aF8.555850455135001
aF0.7829967140125
aF1.336899900516
aF60.1907705001
aF5.3207655552399995
aF4.98115783591
aF61.924696485649996
aF3.93962746762
aF5.536542447915
aF1.348648760178
aF0.5965483864529999
aF0.47607395299800004
aF1.4915083793475
aF0.458794805597
aF0.6734129405655
asS'grey purple'
p77
(lp78
F31.983323644050003
aF7.816336456369999
aF8.291081900855001
aF32.2385066686
aF3.138035550565
aF20.043513783050003
aF1.9730392456624999
aF0.2657975631046
aF0.19464464335985
aF1.9599810716250001
aF0.874702685463
aF5.44572286631
aF49.78086789905
aF4.107905045345
aF6.087790728130001
aF52.3319315089
aF5.686845506259999
aF6.077177546285
aF2.350775934208
aF0.21966633701744998
aF0.6791913100545
aF2.5710972576190003
aF0.65270246887435
aF0.7221154920635
aF67.87895961295
aF3.911377545945
aF6.714512927925
aF68.1621755088
aF4.621845368340001
aF7.06996645866
aF0.285807271688
aF0.27505546233199996
aF0.5909558728575
aF0.309655907044
aF0.4733354060125
aF0.9513361945484999
asS'yellow-green'
p79
(lp80
F89.852715897
aF4.26865437634
aF5.74432758611
aF90.49354956235
aF3.856136182975
aF4.83974154822
aF0.2871666360265
aF0.1344948618155
aF0.20706354889165
aF0.39725240299
aF0.24651941519
aF0.271289717253
aF100.25452440469999
aF3.835559392615
aF10.170990066969999
aF107.2571315225
aF6.22402077704
aF6.081573022165
aF3.65299433102
aF0.08809698679015
aF1.1655145150695
aF7.85079008661
aF1.5376316933249998
aF1.4736658932900002
aF86.40378724125
aF2.95125834978
aF5.506638258275
aF91.28084052135
aF6.16211105845
aF4.9569296265750005
aF0.231590789139
aF0.20686851515565
aF0.48828586992899997
aF2.0055728268665
aF1.1354724826045
aF1.007325164302
asS'royal blue'
p81
(lp82
F237.899837676
aF6.881322433625
aF5.7582749756950005
aF241.718808567
aF7.293569998555
aF4.42248539108
aF3.71245496873
aF1.4397808585440002
aF0.8095424797895
aF5.63923658505
aF0.8278806516
aF0.6824250353544999
aF96.98457506755
aF2.85184983252
aF9.828064289835
aF103.203826703
aF6.46702309132
aF10.798085181400001
aF4.205089531405
aF0.28515250983975
aF1.97513258968
aF5.841363914844999
aF1.49818003582
aF1.4830099571700002
aF78.49246461954999
aF4.04900299306
aF6.308524310035001
aF87.22758313435
aF9.284414063735
aF5.46253462119
aF4.150090687805
aF0.632120159722
aF0.7831167034405
aF4.388722596625
aF1.806532237705
aF1.4818453585004998
asS'teal green'
p83
(lp84
F145.23361981649998
aF4.5553674148750005
aF6.227134995305001
aF145.423821115
aF4.398745254545
aF6.0663486373449995
aF0.273575367206
aF0.26824536161449997
aF0.36323674689749996
aF0.278862266665
aF0.234860727396
aF0.42265991713100004
aF103.43877432265
aF4.504390720695
aF11.133559642049999
aF107.10794709000001
aF6.43722385385
aF8.94467003047
aF6.637154462374999
aF0.09949125091315
aF1.55184872108
aF8.541867333995
aF1.43253251365
aF1.468456283185
aF75.53370638794999
aF3.659887341255
aF7.00161131156
aF75.7997745017
aF4.28470478433
aF11.16025832775
aF0.5554832005635
aF0.3083582955495
aF0.7352148378155
aF0.5773556430775
aF0.7921346594795
aF2.6613782203470002
asS'turquoise blue'
p85
(lp86
F200.2393125875
aF4.32560093706
aF6.120887461265
aF200.7219694295
aF4.6376856524250005
aF4.950074692625
aF1.129654851166
aF0.17034961733800003
aF0.490694625415
aF1.1220855660295
aF0.173647572045
aF0.20928132394100002
aF100.39953181735001
aF3.6220541522099996
aF11.187297223449999
aF104.3098871345
aF9.089791839555
aF9.530709734835
aF5.04476395189
aF0.06582545580405
aF1.61804589359
aF5.53887738026
aF1.376831885085
aF1.1441658264
aF100.03866915895
aF3.50876948185
aF10.85349586032
aF105.996134284
aF9.50207870222
aF4.652815141985
aF4.445179716975
aF0.12094919550255001
aF1.597105668855
aF6.65181431275
aF1.6623745064470001
aF1.4502402531174998
asS'blush pink'
p87
(lp88
F-15.786531902876
aF4.87400835352
aF5.60178951738
aF-11.459341664859998
aF3.355668451455
aF6.385582419215
aF2.3496286109705
aF0.7549309471205
aF1.120420546597
aF1.532166481415
aF0.3217730569665
aF0.45842215321195
aF53.9063065629
aF4.9798584874500005
aF5.770170998485
aF57.9311303688
aF4.495184710025
aF5.92755751894
aF1.1891486529525002
aF0.5913848613435
aF0.6341867429635
aF2.324797201039
aF1.1544120805395
aF1.2126325839229999
aF97.92712008665
aF4.045362489705
aF5.826144047525
aF107.56796753649999
aF4.353999191655
aF2.65648956001
aF1.621557711044
aF1.0529408957048
aF0.850234443118
aF6.00055575092
aF1.995009587945
aF1.2361976941475001
asS'midnight blue'
p89
(lp90
F227.9892219745
aF5.540741474175
aF5.57600968689
aF230.1556662665
aF4.399737233830001
aF8.765331745080001
aF3.38241532829
aF0.871171674204
aF0.9354267926984999
aF3.430051199615
aF0.4901146081495
aF1.0789921120945
aF89.03589861625
aF3.594994611065
aF9.54724541265
aF94.2168988577
aF9.083691480955
aF7.259155416205
aF5.159563612035001
aF0.39617760028375004
aF1.296997767609
aF6.703079211255
aF0.9773984011825
aF1.09531619996
aF63.9298059943
aF4.075307400190001
aF7.187872132980001
aF70.50056175345
aF5.984404866715
aF6.724623697815
aF3.123088237895
aF0.425131108186
aF0.8124915247185001
aF4.642178713215
aF1.5089199920585001
aF2.6248644411999997
asS'slate green'
p91
(lp92
F159.71395466299998
aF3.8888431298999997
aF9.45747147605
aF160.7991197215
aF4.127190058215
aF9.098858802030001
aF3.340999646781
aF0.28478035546799996
aF1.9187084934875
aF3.5226493018345
aF0.5632825683995
aF0.96559288485
aF64.4023430446
aF4.492061352265001
aF6.767294671789999
aF67.03175021845
aF4.4251887041149995
aF6.21718242483
aF3.981574900785
aF0.63196208368765
aF1.32446821044
aF5.237467117805
aF1.0815948373185
aF1.319192774085
aF65.01266941435
aF3.38992730405
aF7.070670575055
aF66.1037816427
aF4.471096295905
aF6.686223681035
aF1.5574583371285
aF0.610331530025
aF1.0185168099015
aF1.6399390580065
aF0.5166680578989999
aF0.842106501082
asS'violet blue'
p93
(lp94
F70.5031056078
aF4.651561726480001
aF6.2097049652
aF70.95159568189999
aF4.210737074445
aF7.705130552255
aF1.769098289955
aF0.3062634242335
aF0.5340657466245
aF1.68402729028
aF0.20331459416800002
aF0.538900580907
aF99.56142792335001
aF3.8328831917399997
aF11.92762071365
aF103.065748218
aF6.79020037706
aF10.605769547400001
aF7.132408510355
aF0.18424121849475
aF1.7799922269050001
aF8.105376209340001
aF1.918218716505
aF1.170841055925
aF96.50360260209999
aF3.8603127497350003
aF10.11890610207
aF103.63931794850001
aF7.68757087386
aF6.319459224465
aF3.756109658085
aF0.128050833762
aF1.1593095145549999
aF5.96134020952
aF2.30774882046
aF1.588994079825
asS'puke green'
p95
(lp96
F91.4570240995
aF4.38853190503
aF6.346775128905
aF93.35825378045
aF4.507103829275
aF4.99460557247
aF0.873831185556
aF0.4081560122825
aF0.5212107659855
aF0.8259570590195
aF0.6327933744224999
aF0.70496231213
aF103.13259091535
aF4.059576395740001
aF10.7649965859
aF106.471728061
aF5.653105905069999
aF6.107890214565
aF6.778437136925
aF0.22997473608865
aF1.9521406353650002
aF8.462159957265001
aF1.38863007497
aF1.685992266345
aF75.01355801225
aF3.128144048305
aF7.27419996199
aF76.86853012360001
aF3.5705251236300004
aF7.2705322397500005
aF1.0660760560635
aF0.371674413158
aF0.9875533082215
aF1.4786402136915
aF0.7491450405494999
aF1.653669224837
asS'midnight purple'
p97
(lp98
F75.09616502855
aF5.841058698015
aF4.07420027147
aF77.24240303759998
aF3.0108096510699998
aF12.7968768061
aF2.7271698014775
aF0.8051200170186
aF0.5756519573418499
aF2.81271022847
aF0.5738636563724999
aF2.27532435199
aF83.0690131976
aF4.258063399865
aF8.5434131417
aF88.61847535555
aF9.464503545235
aF4.97165324105
aF4.982005553405
aF0.41895466652845004
aF0.8838366295605
aF6.442056068145
aF0.9963526930225
aF1.17105002496
aF49.38125879045
aF3.824511530535
aF6.222024355925
aF52.967023469400004
aF3.16899333803
aF9.61209878035
aF1.2715420623775
aF0.469438449783
aF0.6697960903375
aF1.776319685929
aF0.645386070604
aF2.47235545809
asS'grey pink'
p99
(lp100
F55.2684178541
aF7.56083701802
aF9.099409837765
aF55.52221927565
aF4.494981751
aF15.779969480470001
aF1.9607192182155
aF0.3744953874065
aF0.429270205835
aF1.953188473165
aF0.774034048826
aF4.1881823521609505
aF34.2139174325
aF4.260392374185
aF4.20516721302
aF34.83214732885
aF3.6797737270199997
aF7.752125223469999
aF0.43708657428049996
aF0.31966790937449996
aF0.46413685555249995
aF0.318746345423
aF0.36724889327385
aF0.8429731338484999
aF80.2696058409
aF2.82474883627
aF7.30994459236
aF82.54784659034999
aF5.38553276989
aF4.141081403515
aF0.43460935278449997
aF0.1620001932778
aF0.5314019860565
aF1.2889435364250001
aF1.184985106542
aF0.499944001721
asS'turquoise green'
p101
(lp102
F146.088651782
aF4.404603090005
aF6.27483633604
aF146.5330531975
aF4.9438951288799995
aF5.142848113525
aF0.380796247202
aF0.140924485138
aF0.26788168988899996
aF0.40869106070399996
aF0.17592495591250001
aF0.2002921858615
aF103.33224510285001
aF4.29641491901
aF10.40907227855
aF107.598521748
aF7.808644122535
aF7.2986848517050005
aF5.79961134994
aF0.06602670462095
aF1.51601277679
aF7.17044129769
aF1.63601546792
aF1.310836521825
aF87.3666970518
aF2.9604645611200002
aF10.332841681975001
aF90.32252227435
aF6.707842373410001
aF6.78235902587
aF2.6287558461985
aF0.20239914176405
aF1.6436829551515
aF3.8088566905665
aF0.6401887620965
aF0.8387342848645001
asS'slate grey'
p103
(lp104
F170.2413027315
aF6.627590869425
aF11.3432411135
aF171.461474
aF3.464042977075
aF19.4028116803
aF4.9479611516099995
aF0.44114622704999995
aF1.925636383003
aF5.11134236608
aF1.165764454072
aF5.023014205405
aF15.9056398468
aF4.31111908772
aF2.46655660547
aF17.146860656999998
aF3.217972636905
aF5.962132631799999
aF1.451550602833
aF0.7806936116919999
aF0.8054175417930001
aF1.290384347024
aF0.26988934491785
aF0.6760190742134999
aF59.4309902253
aF3.7337738949199997
aF6.78935232754
aF60.74287391119999
aF4.41590413824
aF5.575289630745
aF1.7032921328305
aF0.6041916066545
aF0.9654119104434999
aF1.80355219655
aF0.4193156447365
aF0.5500774067835
asS'poop green'
p105
(lp106
F84.00548973024999
aF4.2560832999
aF6.84244885547
aF85.0022347298
aF4.22398349795
aF4.750207940405
aF2.946985019861
aF0.4409935604205
aF0.5916372159475
aF2.6856897812395
aF1.1286093467625
aF0.48180682586
aF95.23652569095
aF3.21777750252
aF11.42970135425
aF99.098180246
aF6.679472929665
aF6.385374707825
aF4.637748306275
aF0.25421648644715
aF2.29076453113
aF5.93634485978
aF1.80236463434
aF1.59040032426
aF68.7781684138
aF4.424050188355
aF5.8561024693
aF70.44929073235
aF3.6224481885550004
aF6.571821525475
aF0.9434976188184999
aF0.4602166556025
aF0.7272715977045
aF1.2097917681115
aF0.7096706383145
aF1.318766830732
asS'lemon yellow'
p107
(lp108
F61.6379912218
aF3.5282919309
aF3.326791513885
aF63.616654090599994
aF1.81557504796
aF5.397572840225
aF0.9589090855605
aF0.326029609543
aF0.58277709253415
aF1.0054112843005
aF0.37900949632150005
aF0.965886645433
aF80.68911765979999
aF3.538386413255
aF7.8403443491600004
aF87.7392491393
aF5.735875527455
aF6.874435896405
aF1.832842877755
aF0.3423560709095
aF0.9195037363945
aF5.014414796525
aF1.367126931085
aF1.65381459984
aF97.122331906
aF2.004560254495
aF5.11988449791
aF109.50371897
aF6.751988760715
aF4.28623220434
aF0.8142403581655
aF0.31272186764615
aF0.9608172798375
aF3.832162426835
aF1.630249844745
aF1.431114273295
asS'olive green'
p109
(lp110
F93.8025502652
aF4.20661417206
aF6.36654083253
aF94.3690400003
aF4.09137649244
aF6.694149346575
aF0.551857968796
aF0.19317194801999998
aF0.3958141720235
aF0.48866852264750005
aF0.2604279847585
aF0.611877735645
aF89.3596522329
aF4.345902046785
aF9.832503455394999
aF92.4763383656
aF5.6941488466750005
aF7.294674883035
aF3.4994414642000002
aF0.44766001491315
aF1.88320965392
aF5.08908246566
aF1.520472253735
aF1.591286547955
aF67.06345114695
aF3.05585440448
aF7.4667233871850005
aF67.72624048750001
aF3.922381138125
aF7.00168367601
aF0.41094600806500003
aF0.3404813907875
aF0.9220156933865
aF0.34644713368799995
aF0.3405491475225
aF0.693166279061
asS'steel grey'
p111
(lp112
F163.27479120700002
aF7.216598923625
aF8.185052747145
aF166.3600386395
aF5.826438495510001
aF16.61460824682
aF2.93715690409
aF1.034695689751
aF0.995867854113
aF3.3927613425
aF1.38978888876
aF4.680937511765
aF16.19521061585
aF3.278952163265
aF4.8771326908
aF18.11697206965
aF3.420820922935
aF4.622249727155
aF1.232239244773
aF0.5084256118065
aF1.027727457943
aF1.236512611194
aF0.73679802952935
aF0.5714352593795
aF60.89576643385
aF2.87596649645
aF7.7840634495
aF63.76501104924999
aF3.90637396935
aF5.2637325868
aF1.5202524192705
aF0.378529880939
aF1.0115979398185
aF2.40856241058
aF0.619093132927
aF0.4598591909565
asS'red-brown'
p113
(lp114
F14.45700268821
aF3.619543109555
aF4.23074883468
aF14.740415000805
aF3.926850680205
aF3.5166896455899996
aF0.228359038284
aF0.08497450473615001
aF0.0938130062549
aF0.19749111725000001
aF0.0999329213961
aF0.08566333979355001
aF89.74541847195
aF3.617505609185
aF7.957429030505001
aF98.82485816975
aF8.073679278025
aF4.131785344735
aF1.668407115182
aF0.15044989647669998
aF0.5067804428730001
aF6.16058378419
aF1.7471080974939999
aF1.474812721595
aF72.21247107869999
aF3.9923322902100002
aF5.970248621845
aF77.81006458190001
aF8.236359209255
aF6.5746356914
aF0.737492909608
aF0.13969883573435
aF0.3330396472205
aF3.7172592769525004
aF0.5497485768
aF0.6204813205255001
asS'sandy brown'
p115
(lp116
F36.17236497185
aF3.87149895093
aF3.62536992465
aF38.69617767165
aF3.7840318539449997
aF5.198790509695
aF1.9467601373985
aF0.6353053176140999
aF0.54939050578455
aF1.4205109675604999
aF0.4761902321596
aF0.53636655480505
aF67.4236666712
aF4.29494160397
aF6.393482923435
aF75.02740906085
aF6.314436038055
aF4.24468946024
aF3.13074929716
aF0.548682729054
aF0.79782876025
aF5.14205895461
aF0.8226074883404999
aF1.3032384989615
aF72.0329616809
aF4.2328896545950006
aF4.809511130000001
aF74.39121290925
aF3.2741807395849998
aF4.519947093775
aF1.564464642403
aF0.5764593051645
aF0.7257768274924999
aF1.4938212104175
aF0.5301428502875
aF0.554229380913
asS'blue violet'
p117
(lp118
F70.5031056078
aF4.651561726480001
aF6.2097049652
aF70.95159568189999
aF4.210737074445
aF7.705130552255
aF1.769098289955
aF0.3062634242335
aF0.5340657466245
aF1.68402729028
aF0.20331459416800002
aF0.538900580907
aF99.56142792335001
aF3.8328831917399997
aF11.92762071365
aF103.065748218
aF6.79020037706
aF10.605769547400001
aF7.132408510355
aF0.18424121849475
aF1.7799922269050001
aF8.105376209340001
aF1.918218716505
aF1.170841055925
aF96.50360260209999
aF3.8603127497350003
aF10.11890610207
aF103.63931794850001
aF7.68757087386
aF6.319459224465
aF3.756109658085
aF0.128050833762
aF1.1593095145549999
aF5.96134020952
aF2.30774882046
aF1.588994079825
asS'blue-purple'
p119
(lp120
F75.60663638105
aF4.9985865639
aF6.251363388630001
aF75.76506862209999
aF3.4949731552500003
aF9.54678748388
aF1.1149363447975
aF0.1388568237226
aF0.41052968937034995
aF1.084682512705
aF0.269943415923
aF1.3972906838345
aF95.34485781135001
aF3.61448654309
aF11.16675373935
aF98.92818645685
aF8.175209290489999
aF8.564252222445
aF4.1259528341100005
aF0.0707335601962
aF1.3002750955015001
aF4.8866161109699995
aF1.20522437844
aF1.19861849651
aF86.13261090915
aF4.115835875805001
aF7.516485353785001
aF89.19669524995001
aF7.471273854815
aF6.051356625065
aF1.9563973467625
aF0.19974543944099998
aF0.597483486019
aF2.989000390684
aF1.5928735635255
aF1.8548712571
asS'aqua green'
p121
(lp122
F146.2459752035
aF4.04180852785
aF7.03501394331
aF146.68995603899998
aF4.940393665105001
aF5.099232101955
aF0.47894349223450006
aF0.2398453809125
aF0.48180812585849997
aF0.43438950457799996
aF0.24989331416149999
aF0.24196230246650002
aF99.93771855385
aF4.169545182135
aF10.775197326499999
aF103.42101492169999
aF6.6315541931799995
aF6.8886910407199995
aF6.03162438319
aF0.11349722165065
aF1.7812674754
aF7.67672678345
aF1.68681616166
aF1.061522698036
aF87.20515163155
aF2.808468845975
aF8.573979160524999
aF92.64617126835
aF5.08330319624
aF5.950065677455
aF0.39868555942899997
aF0.25616133402200003
aF0.868673352679
aF3.1194855017015
aF0.9649950281245001
aF1.383897314452
asS'golden brown'
p123
(lp124
F36.0019014306
aF2.4373847501005
aF5.389049873245
aF38.18703452365
aF3.597537343825
aF3.5187608459799997
aF0.9392720040835001
aF0.2894571589671
aF0.69572418742455
aF1.8620770056655
aF0.6148638971871
aF0.43451685150705
aF87.5067660005
aF4.003572678795
aF7.63490901529
aF95.53709057595
aF7.19846520824
aF4.803829699885
aF3.5592150968249996
aF0.5668422750495
aF0.82546067127
aF7.022689676125
aF1.094458002354
aF1.5011260710449998
aF71.9645674283
aF3.342225229725
aF4.376520039045
aF81.3624248474
aF3.7757596358149996
aF3.1365382785900002
aF1.443739684983
aF0.5462671037465
aF0.7035682996475
aF4.3315782471725
aF0.671029216478
aF0.6494736179605001
asS'orange-brown'
p125
(lp126
F27.15106293435
aF3.886777902645
aF3.98423589296
aF27.7995995892
aF4.225042038194999
aF3.7752573236849996
aF0.309930593796
aF0.0986010243131
aF0.10680433921804999
aF0.3206440072465
aF0.0988355009715
aF0.10889625466905001
aF87.2294741549
aF3.6583363324550002
aF8.455454533645
aF95.95756331475
aF9.66821125186
aF4.80035535381
aF1.907319160155
aF0.1570929444172
aF0.486785570039
aF5.838698029865
aF0.8244962669989999
aF1.5420286274400001
aF75.9118645106
aF3.35796781748
aF5.6673245018700005
aF77.8796842614
aF6.92505230622
aF5.095440598105
aF0.5153819839035
aF0.1162492146966
aF0.3416031157645
aF1.5927237833625
aF1.1242194670630001
aF1.0705164491555001
asS'lavender blue'
p127
(lp128
F71.85925584239999
aF4.428715347520001
aF7.348618509075
aF72.21478532465
aF3.6487971897600002
aF9.29591399093
aF1.3307654000309999
aF0.328841301115
aF0.673275410303
aF1.2370105998315
aF0.294437783868
aF1.3605620483395
aF68.1396307143
aF3.773708936915
aF8.268467198875
aF70.03964823125
aF5.527683870265
aF9.22068552037
aF2.4897380202815
aF0.18966248441074998
aF0.98408831339
aF2.886567484825
aF0.7312649696815
aF0.966741366232
aF99.68653467305
aF4.7033007784
aF6.923474160115001
aF106.005941472
aF7.861067020145001
aF6.525826559765
aF3.1328530138649997
aF0.158468446378
aF0.589211758622
aF6.0801258897
aF1.79018689646
aF1.507497103905
asS'rust red'
p129
(lp130
F6.761568226860001
aF2.954452596795
aF4.1589094883849995
aF8.551733223454999
aF2.575509681675
aF4.480278119035
aF0.8088060559905
aF0.22714506076455002
aF0.5490186692553499
aF0.6708547600195
aF0.3358346595405
aF0.909586518709
aF96.72674510085
aF3.09937462335
aF8.014203538205
aF103.09681903115
aF4.72235264562
aF5.296787766905
aF2.754009404732
aF0.17537171212869998
aF0.921463698368
aF5.715322791225001
aF1.7912802439414999
aF1.19574345923
aF79.43908750915
aF3.3877011184150003
aF6.295624980775
aF86.64080900105
aF7.690780597425
aF6.358307487019999
aF1.2599958174900001
aF0.38349685844985
aF0.885292117728
aF4.199084949455
aF0.6837309838185
aF0.857567215685
asS'dusk blue'
p131
(lp132
F226.374661326
aF4.451873703605
aF7.479297998045
aF229.53964777800002
aF6.45625945336
aF8.42024626808
aF3.63358551415
aF1.132376762479
aF0.9173362638735
aF3.098959753065
aF0.966573406035
aF0.7734650425045
aF71.61184788655001
aF3.48763866108
aF8.78233799287
aF75.10636255475
aF7.19964240978
aF9.454614526290001
aF5.73567470441
aF0.81913701884575
aF2.10037308251
aF6.37562580624
aF1.064818685969
aF1.119729019425
aF77.12084966735
aF3.319272658785
aF10.830577138470002
aF83.26296343595
aF6.828781763605
aF4.89790942592
aF3.0316422062
aF0.526525858089
aF2.268299452165
aF4.9513037472649994
aF1.781473018165
aF1.64042371347
asS'brown-red'
p133
(lp134
F14.45700268821
aF3.619543109555
aF4.23074883468
aF14.740415000805
aF3.926850680205
aF3.5166896455899996
aF0.228359038284
aF0.08497450473615001
aF0.0938130062549
aF0.19749111725000001
aF0.0999329213961
aF0.08566333979355001
aF89.74541847195
aF3.617505609185
aF7.957429030505001
aF98.82485816975
aF8.073679278025
aF4.131785344735
aF1.668407115182
aF0.15044989647669998
aF0.5067804428730001
aF6.16058378419
aF1.7471080974939999
aF1.474812721595
aF72.21247107869999
aF3.9923322902100002
aF5.970248621845
aF77.81006458190001
aF8.236359209255
aF6.5746356914
aF0.737492909608
aF0.13969883573435
aF0.3330396472205
aF3.7172592769525004
aF0.5497485768
aF0.6204813205255001
asS'drab green'
p135
(lp136
F84.34967207125
aF3.61637241832
aF6.86786736302
aF95.95738412115
aF3.708627223845
aF6.29709451612
aF2.8820514142110003
aF0.781489526329
aF1.3021287559874999
aF3.2863185190195
aF0.6159125047474999
aF0.638552155095
aF79.93448078040001
aF4.891350481625
aF7.705033214275
aF86.0129539547
aF5.871753413765
aF4.84911406281
aF4.46809875853
aF0.46051074795615
aF1.1387084233855
aF6.839897920269999
aF1.6057246373999998
aF1.565051098005
aF62.63864457065
aF5.58165687308
aF4.7719030939
aF64.89002615475
aF4.459440771600001
aF6.58884314334
aF2.3157139254435
aF0.565726058297
aF0.8771782522989999
aF2.0533599229965
aF0.610986824066
aF0.9346029394969999
asS'olive drab'
p137
(lp138
F57.95385062045
aF2.96671294443
aF5.17333764195
aF70.02592473445
aF2.303684025365
aF7.0904545980350004
aF3.161444719325
aF0.8286032578410001
aF1.373264274336
aF3.4997525684679998
aF0.6855913540709999
aF1.06744972296
aF62.1169632123
aF4.9371132405200004
aF6.92340054917
aF67.3854131343
aF6.333800468270001
aF5.756084314505
aF2.15433453389
aF0.859811771284
aF1.5125480773555
aF3.51821329699
aF1.4215596388649998
aF1.7001115836
aF54.3648818189
aF5.36748937356
aF4.797601706935
aF57.233257127550004
aF3.6836091838450002
aF6.16755750905
aF2.5515641527815003
aF0.5878694587175
aF0.9658604526925
aF2.2308628830815
aF0.5394999753095
aF0.843400914854
asS'brick orange'
p139
(lp140
F16.13765859996
aF3.337716407985
aF4.0965590857750005
aF17.56344158287
aF3.49834041111
aF3.741054743945
aF0.8570026798325
aF0.27597895811650003
aF0.3705554494085
aF0.774415934206
aF0.3547418080699
aF0.453081144943
aF88.19674420175
aF3.657231748935
aF7.569996985034999
aF95.3594930552
aF7.48111127013
aF6.653577527995
aF2.397046137225
aF0.1857145355707
aF0.6240758694465
aF4.892072190315
aF1.22991398231
aF1.406978943855
aF81.0334074953
aF3.121240746435
aF5.09886532317
aF84.57022323230001
aF6.92201787454
aF4.847963355745
aF1.7358959576905
aF0.5563745471186
aF0.5807492502330001
aF2.12682097708
aF1.2970086014315
aF1.3024305343235
asS'mustard brown'
p141
(lp142
F39.32467487365
aF3.26055106612
aF3.993577745885
aF40.43896832705
aF4.10953472843
aF3.47363098609
aF0.5606297107125
aF0.2199912609091
aF0.21030391318605
aF0.4875549512715
aF0.4402689120756
aF0.30656318563905
aF89.26528656125001
aF4.451631300680001
aF8.161912026235001
aF99.27153575825
aF9.57443961039
aF4.494746079395
aF2.8788251852649998
aF0.2077984773885
aF0.6732411745144999
aF8.336912560944999
aF0.907938173929
aF1.73511275199
aF68.7976736497
aF3.3787668869000003
aF5.47418352099
aF69.84578193505
aF3.8499177471499997
aF4.099598270615
aF0.5256736623289999
aF0.21215516884399999
aF0.465772784356
aF0.487079165024
aF0.2350121951545
aF0.21164952407550003
asS'navy blue'
p143
(lp144
F227.7403321615
aF4.1701772213
aF7.466595536325
aF228.715029481
aF4.401944449915
aF6.37419215452
aF1.394054389145
aF0.336114743128
aF0.8960259051985
aF1.3847149990249998
aF0.2765474465215
aF0.4482511585315
aF100.9210084985
aF3.022275057585
aF12.90922464995
aF104.2959256505
aF11.192135672205
aF9.452744656970001
aF5.05960156261
aF0.12813862382425
aF2.203794344105
aF6.08281082271
aF1.8881008693
aF1.41663465555
aF68.2229929918
aF3.99887259536
aF6.4510906792050005
aF71.5970965006
aF6.768118177105
aF4.7639177852
aF2.3034503330155
aF0.2416975282955
aF0.5586515967265
aF3.3280935045155
aF1.3597541410855
aF1.2953533714569998
asS'mustard green'
p145
(lp146
F84.69733478415
aF3.7371905561050003
aF5.75643355797
aF85.73050457015
aF4.749689241075
aF4.343692953455
aF0.55446239408
aF0.250157438684
aF0.323853834739
aF0.5222986978255
aF0.48651494439599996
aF0.3484378196695
aF102.49396822535
aF4.25339744431
aF9.297591789344999
aF109.131631202
aF6.9052181021750005
aF5.170462703295
aF4.4627576143
aF0.12187019719514999
aF1.1403016133945
aF8.962706525209999
aF1.394475221935
aF1.585633253985
aF79.06538091190001
aF2.9347535523949997
aF6.295942162559999
aF80.0272132835
aF3.879741541935
aF5.57731839106
aF0.3981072932795
aF0.2788276877745
aF0.696326308165
aF0.337341890933
aF0.338909043881
aF0.537306944307
asS'blood orange'
p147
(lp148
F8.94036162721
aF5.526004571375
aF4.1387816022349995
aF11.519284545435
aF4.03992328428
aF3.98281951448
aF2.5428444671775
aF0.750554823634
aF1.3279472049185002
aF2.599705165696
aF0.4106850707634
aF0.6450026222045
aF92.31744120510001
aF3.381143459925
aF5.34009787665
aF103.4259739795
aF7.43389844521
aF5.15010974521
aF4.231341397805
aF1.3262384527111999
aF0.6315675913295
aF4.659833298144999
aF2.5107288392999996
aF1.0417355417435
aF77.11664207495001
aF2.05154694178
aF6.880924664275
aF82.5819329224
aF6.224757847005
aF6.53305424216
aF1.7702125299104998
aF0.2647178431946
aF0.868879364737
aF2.690992145025
aF1.5650615649500002
aF2.29698302118
asS'pink-red'
p149
(lp150
F-15.62763933169
aF4.061998232085
aF5.14617429348
aF-15.408683145945
aF4.22881433407
aF3.9619789504950003
aF0.303484771356
aF0.18721198182755
aF0.30502659045235003
aF0.32149579952449997
aF0.126981981435
aF0.07531883764995001
aF78.50755096535
aF3.560467103655
aF6.984877952455
aF82.2981113178
aF5.0593457718699995
aF6.426972353795
aF0.4062447276095
aF0.18709900606819999
aF0.44765840600249995
aF2.6414397757190002
aF1.7079622789045
aF1.35525399495
aF92.99424947214999
aF2.759199297105
aF6.94224532914
aF100.5172407375
aF9.008695205715
aF5.88140195535
aF0.7236063169139999
aF0.05617348094615
aF0.31476656355099997
aF4.52390822714
aF1.5239469489520001
aF0.9537435330725
asS'red-orange'
p151
(lp152
F12.15501372756
aF3.6033263462200003
aF3.67962579821
aF12.822587689205
aF3.93588205277
aF3.131281639345
aF0.253490335133
aF0.09784966809105
aF0.10303853490385
aF0.3123881444055
aF0.10051135157339999
aF0.0953286947435
aF96.25508615405
aF2.57923494101
aF8.07010696987
aF103.398733186
aF7.171345721285
aF3.895869315005
aF0.9303854445669999
aF0.0873272889219
aF0.41831689072199996
aF4.840102653644999
aF1.840041208235
aF1.261656290665
aF93.322536215
aF3.19225153468
aF5.8400656327050005
aF100.66960202550001
aF10.522846379165
aF7.202547220095
aF0.8226463746855
aF0.07095509792495
aF0.30241631761
aF4.8415643385300005
aF1.469725745037
aF1.55794430644
asS'yellow-brown'
p153
(lp154
F44.480055986500005
aF3.792014886355
aF3.981471774025
aF45.20201331925
aF3.2159816703299997
aF3.969679580855
aF0.293333952659
aF0.1043286840406
aF0.0935136273387
aF0.362508656436
aF0.2002733828696
aF0.22941508322255
aF87.0258427406
aF4.033793248985
aF9.035310303860001
aF97.39703607875
aF8.893242285254999
aF5.405856398265
aF2.069061901985
aF0.17402526698350002
aF0.6984540761895
aF7.224996122345
aF1.051094645319
aF1.623145391295
aF76.13607997905001
aF3.3952716842850004
aF4.684879616705
aF81.0994091729
aF6.132287263665
aF3.47920950613
aF0.3591571581885
aF0.14019599622515
aF0.25773234612
aF2.1553101009575
aF1.031575633878
aF0.6816677440705
asS'blue-green'
p155
(lp156
F174.3490325215
aF4.777271493005
aF7.907121678825
aF174.489415619
aF5.190110214465
aF5.70801584376
aF1.021323267646
aF0.175483348708
aF0.5474915892009999
aF0.9886289785244999
aF0.1884717515675
aF0.1919693058595
aF104.2444565155
aF3.62577852109
aF11.3923610654
aF107.8152445725
aF6.5132495091900005
aF8.61972951447
aF5.05835829079
aF0.0481577427684
aF1.61140311675
aF6.77920317151
aF1.445453669435
aF1.2895553669350002
aF88.00918600585
aF3.81832682473
aF7.961678952495
aF91.05662152435
aF7.492449054690001
aF5.293425426415
aF1.9915196515035
aF0.23688804410550002
aF0.7867562066964999
aF3.0119017957865
aF1.4342217406295001
aF1.3958742719569999
asS'brown-grey'
p157
(lp158
F85.353059874
aF7.11838189549
aF8.183984378965
aF85.67131742240001
aF4.193018097135
aF15.334680175565001
aF1.8855934851435
aF0.2722579103151
aF0.21805662163755
aF1.8291837908905
aF0.7469849887871001
aF4.19852685430455
aF45.4517849391
aF4.317430879715
aF5.177718291070001
aF51.3588941808
aF6.694107233175
aF5.45693821441
aF1.699248961853
aF0.283018799783
aF0.5232588924229999
aF3.837890353894
aF0.40639471186334997
aF0.9625318604934999
aF59.48782744745
aF4.057881829375
aF6.337947885065001
aF59.840670434749995
aF4.6131967734299995
aF4.834315139565
aF0.4484959454785
aF0.245525548066
aF0.549675069726
aF0.4822945862375
aF0.21078673439
aF0.166681789174
asS'purple-pink'
p159
(lp160
F-54.00132635485
aF5.04340434939
aF5.557881910120001
aF-53.86448199975
aF3.462991772925
aF9.31478824232
aF0.447370790538
aF0.1815029908391
aF0.28538041648885004
aF0.4605489431
aF0.253023827509
aF1.33608240958095
aF73.81102192615
aF4.430042660730001
aF8.28029795329
aF75.82997877465
aF6.548949575529999
aF7.951697724475
aF2.0347054155525
aF0.19351219879795
aF0.672059502951
aF2.373242055664
aF0.9387250946795
aF1.3952099632950001
aF83.97470993325
aF2.7784112964750003
aF7.146069241165
aF86.04882804745
aF5.41954972768
aF6.0099466524550005
aF0.2536532523415
aF0.1309975119838
aF0.395234164837
aF1.102428992779
aF1.4409893426005
aF1.2509700811625
asS'purple-red'
p161
(lp162
F-38.912733541739996
aF4.317497670434999
aF4.33784635657
aF-38.692395752995004
aF2.871868133635
aF8.225523253075
aF0.315804798803
aF0.07851415752565
aF0.07040102797719999
aF0.3282883979845
aF0.227650618072
aF1.332859351799
aF94.0745014319
aF3.4079797748150003
aF8.867501467565
aF99.79789549784999
aF7.06641755111
aF4.7520246766100005
aF2.3199340875370003
aF0.08709743371115
aF0.6627128605045001
aF4.893790687915001
aF1.9934158545049998
aF1.2343963531650002
aF80.6036032442
aF3.84582800678
aF6.3468136647049995
aF86.13156965595
aF8.245007804165
aF8.810287010495
aF0.5748042358175
aF0.16922875000034998
aF0.374320450352
aF3.544620597759
aF0.8122972484225
aF1.4051357259000001
asS'yellow tan'
p163
(lp164
F49.93314464035
aF3.632617360295
aF3.76692095787
aF50.732363406800005
aF2.72676797154
aF4.27779345607
aF0.36389827914100004
aF0.27577083368800004
aF0.36011248587615
aF0.4994284491245
aF0.29952720840150004
aF0.420536953499
aF71.02655672464999
aF3.7055431543350004
aF7.837186480270001
aF76.58289307975001
aF5.0214970862
aF6.932058951335
aF1.1862212932305
aF0.253098922797
aF0.7916228337135001
aF4.0411266294175
aF0.8954274535219999
aF1.3372705063449999
aF89.62763124405001
aF3.027837814335
aF4.00376867496
aF94.61137288715
aF5.696360005665
aF3.58627683441
aF0.3429460767795
aF0.22317423348065
aF0.3668076163995
aF2.1339541257795
aF1.023737754408
aF0.758935901396
asS'yellow-orange'
p165
(lp166
F42.17806702585
aF3.77579812302
aF3.430348737555
aF43.28418600765
aF3.225013042895
aF3.58427157461
aF0.31846524950800004
aF0.1172038473955
aF0.10273915598764999
aF0.4774056835915
aF0.2008518130469
aF0.23908043817250002
aF93.5355104227
aF2.9955225808100003
aF9.147988243225
aF101.970911095
aF7.9909087285150004
aF5.169940368535
aF1.3310402313699998
aF0.1109026594287
aF0.6099905240385
aF5.904514991799999
aF1.1440277560599998
aF1.4099889603650002
aF97.24614511535
aF2.5951909287549997
aF4.554696627565
aF103.9589466165
aF8.418774433574999
aF4.107121034825
aF0.444310623266
aF0.07145225841575001
aF0.2271090165095
aF3.2796151625350003
aF1.9515528021150002
aF1.6191307299850002
asS'rust orange'
p167
(lp168
F19.455628473
aF3.221687389885
aF3.912396546665
aF21.61091781185
aF2.873701039665
aF4.73884579713
aF0.8903776115025
aF0.2407715803415
aF0.5620100022185
aF0.794007650016
aF0.33473723911590003
aF0.9328194335845
aF94.21080078380001
aF3.14020534662
aF8.512229041345
aF100.22952417615
aF6.316884619455
aF5.96535777598
aF2.992921449705
aF0.18201476006919998
aF0.901468825534
aF5.3934370369
aF0.8686684134464999
aF1.262959365075
aF83.13848094105
aF2.7533366456849997
aF5.992700860799999
aF86.71042868055
aF6.37947369439
aF4.879112393725
aF1.0378848917855001
aF0.3600472374121
aF0.893855586272
aF2.074549455865
aF1.2582018740815
aF1.3076023443150002
asS'lime green'
p169
(lp170
F101.3642341688
aF4.6987531616950005
aF5.653751793035
aF101.896884817
aF3.9082225139349998
aF9.85180430543
aF1.218134819031
aF0.419434993007
aF0.437412964284
aF1.1901828748745
aF0.2201963648115
aF1.13699265219
aF103.7827386235
aF4.063720715695
aF10.170094172214998
aF108.376935641
aF6.307333659465
aF6.96447999271
aF5.33379112316
aF0.20921161076065
aF1.1233258452795
aF8.230756286135
aF1.682955780595
aF1.130142376627
aF87.35250285264999
aF3.179277493765
aF6.571973020414999
aF92.26044606435
aF6.919273267255001
aF8.06937499515
aF0.4631334264175
aF0.2423794149255
aF0.5871238083425
aF2.5286916519565
aF2.0853988506595
aF1.126707216227
asS'grey green'
p171
(lp172
F130.7257197845
aF7.595021385475
aF9.94684019105
aF130.9628536655
aF4.83317260978
aF16.20474214293
aF1.8794261685109999
aF0.30242408809
aF0.3316065431905
aF1.8639275374445001
aF0.7932310211075
aF4.240401488335
aF58.6804666032
aF4.119197023345
aF6.31339805418
aF61.21898962455
aF4.02488572496
aF6.13265483831
aF3.283181390888
aF0.19709051958965
aF0.9903193313030001
aF4.463684318159
aF0.89293175986935
aF0.8130523624885
aF69.75553470965
aF3.61386849487
aF7.159706526635
aF70.0221017832
aF4.643020568215
aF6.31203526001
aF0.320929576429
aF0.3121980669965
aF0.780228593535
aF0.3325573121465
aF0.3146835831165
aF0.4923392094055
asS'green-grey'
p173
(lp174
F130.7257197845
aF7.595021385475
aF9.94684019105
aF130.9628536655
aF4.83317260978
aF16.20474214293
aF1.8794261685109999
aF0.30242408809
aF0.3316065431905
aF1.8639275374445001
aF0.7932310211075
aF4.240401488335
aF58.6804666032
aF4.119197023345
aF6.31339805418
aF61.21898962455
aF4.02488572496
aF6.13265483831
aF3.283181390888
aF0.19709051958965
aF0.9903193313030001
aF4.463684318159
aF0.89293175986935
aF0.8130523624885
aF69.75553470965
aF3.61386849487
aF7.159706526635
aF70.0221017832
aF4.643020568215
aF6.31203526001
aF0.320929576429
aF0.3121980669965
aF0.780228593535
aF0.3325573121465
aF0.3146835831165
aF0.4923392094055
asS'orange-red'
p175
(lp176
F12.15501372756
aF3.6033263462200003
aF3.67962579821
aF12.822587689205
aF3.93588205277
aF3.131281639345
aF0.253490335133
aF0.09784966809105
aF0.10303853490385
aF0.3123881444055
aF0.10051135157339999
aF0.0953286947435
aF96.25508615405
aF2.57923494101
aF8.07010696987
aF103.398733186
aF7.171345721285
aF3.895869315005
aF0.9303854445669999
aF0.0873272889219
aF0.41831689072199996
aF4.840102653644999
aF1.840041208235
aF1.261656290665
aF93.322536215
aF3.19225153468
aF5.8400656327050005
aF100.66960202550001
aF10.522846379165
aF7.202547220095
aF0.8226463746855
aF0.07095509792495
aF0.30241631761
aF4.8415643385300005
aF1.469725745037
aF1.55794430644
asS'rose pink'
p177
(lp178
F-23.23302968325
aF4.04009573818
aF5.594693677345
aF-22.345915377799997
aF4.16115910987
aF5.273041476605
aF0.6288672472204999
aF0.2984718329645
aF0.4646245293915
aF0.7817840858249999
aF0.2990842884485
aF0.51180645171745
aF56.34915983165
aF5.080373461775
aF5.47898431382
aF57.0519096725
aF3.32251462604
aF11.56182518173
aF0.5774529500825
aF0.5062209085
aF0.574476747586
aF0.496691344672
aF0.48990087246450004
aF1.825245791015
aF91.6501933249
aF2.8738659602350003
aF5.95795121909
aF94.15589897814999
aF4.71981637601
aF4.86278202153
aF0.832522663979
aF0.2119322387818
aF0.3150436840695
aF1.63693474786
aF1.4510576571250002
aF1.1727843277374999
asS'purple blue'
p179
(lp180
F75.60663638105
aF4.9985865639
aF6.251363388630001
aF75.76506862209999
aF3.4949731552500003
aF9.54678748388
aF1.1149363447975
aF0.1388568237226
aF0.41052968937034995
aF1.084682512705
aF0.269943415923
aF1.3972906838345
aF95.34485781135001
aF3.61448654309
aF11.16675373935
aF98.92818645685
aF8.175209290489999
aF8.564252222445
aF4.1259528341100005
aF0.0707335601962
aF1.3002750955015001
aF4.8866161109699995
aF1.20522437844
aF1.19861849651
aF86.13261090915
aF4.115835875805001
aF7.516485353785001
aF89.19669524995001
aF7.471273854815
aF6.051356625065
aF1.9563973467625
aF0.19974543944099998
aF0.597483486019
aF2.989000390684
aF1.5928735635255
aF1.8548712571
asS'teal blue'
p181
(lp182
F199.384280622
aF4.476365261930001
aF6.07318612053
aF199.612737347
aF4.09253577809
aF5.8735752164449995
aF1.02243397117
aF0.2976704938145
aF0.5860496824235
aF0.9922567719905
aF0.23258334352850002
aF0.4316490552105
aF100.50606103715
aF3.830029953895
aF11.911784586949999
aF103.8193124765
aF7.71837157087
aF11.1766949136
aF5.8823070643249995
aF0.09929000209625001
aF1.65388183788
aF6.910303416565
aF1.173348930815
aF1.30178558776
aF88.20567849509999
aF4.208192261985
aF7.522265489905001
aF91.47338651135
aF7.07894111314
aF9.030714443865
aF2.37190707134
aF0.22690834928800002
aF0.688637551519
aF3.420313265261
aF1.81432040383
aF3.2728841886
asS'seafoam green'
p183
(lp184
F134.76799757999999
aF3.3717687916
aF9.34600731935
aF136.946335849
aF4.74553308948
aF5.2044983383400005
aF1.2256993181709999
aF0.3278509302725
aF1.1607412860225
aF0.7266981898645
aF0.38182225324349994
aF0.41926589490050004
aF75.2720293289
aF3.464300341165
aF9.862187567505
aF77.87474291905
aF4.36078698739
aF10.80857522142
aF4.016690425195
aF0.42948352199215
aF1.744445990555
aF5.484189994575
aF1.2145223838485
aF2.7626547807899997
aF87.08117316645
aF2.8639884749849998
aF8.402647318605
aF91.69939311035
aF5.13209713539
aF6.577551178055
aF0.5231706467205
aF0.2610218588355
aF0.864634459266
aF1.5554386482715001
aF1.1593973346995
aF0.888214922295
asS'mustard yellow'
p185
(lp186
F54.35167896515
aF3.149571286495
aF3.43969059048
aF55.9235547455
aF3.10950573313
aF3.282645237015
aF0.5691643664245
aF0.2385940839915
aF0.20623872995564999
aF0.6443166276165
aF0.542285224151
aF0.4367473691425
aF95.57132282904999
aF3.7888175490350005
aF8.854445735815
aF105.2848835385
aF7.8971370870449995
aF4.864331094120001
aF2.30254625648
aF0.16160819240000002
aF0.796446128514
aF8.40272952288
aF1.22746966299
aF1.6030730849150001
aF90.13195425445
aF2.615989998175
aF4.361555646685
aF95.92504429015
aF5.3436398745049996
aF3.111278707335
aF0.45460230169149995
aF0.16735821256315
aF0.35127868510099997
aF2.1739705441965
aF1.0623455302065001
aF0.760263804905
asS'brown yellow'
p187
(lp188
F44.480055986500005
aF3.792014886355
aF3.981471774025
aF45.20201331925
aF3.2159816703299997
aF3.969679580855
aF0.293333952659
aF0.1043286840406
aF0.0935136273387
aF0.362508656436
aF0.2002733828696
aF0.22941508322255
aF87.0258427406
aF4.033793248985
aF9.035310303860001
aF97.39703607875
aF8.893242285254999
aF5.405856398265
aF2.069061901985
aF0.17402526698350002
aF0.6984540761895
aF7.224996122345
aF1.051094645319
aF1.623145391295
aF76.13607997905001
aF3.3952716842850004
aF4.684879616705
aF81.0994091729
aF6.132287263665
aF3.47920950613
aF0.3591571581885
aF0.14019599622515
aF0.25773234612
aF2.1553101009575
aF1.031575633878
aF0.6816677440705
asS'green apple'
p189
(lp190
F100.6404395953
aF4.07928750572
aF6.3896985254850005
aF106.12258608675
aF4.390737767
aF7.7049897802950005
aF3.9406688397060003
aF1.220739365219
aF1.0976832498525
aF1.9887883665395
aF0.6109036415075
aF0.7800247730850001
aF90.72460569565001
aF3.75734340354
aF7.919198062985
aF97.0339060393
aF6.216142433865
aF4.974547466025
aF4.359064748195
aF0.43413353579915
aF1.361581267005
aF7.356954213285
aF1.4728392290349999
aF1.353221107275
aF79.47388473875
aF2.696239454185
aF7.232133850029999
aF80.9977745723
aF6.848603732920001
aF5.10128580608
aF1.1867565402135
aF0.4325136521795
aF0.9031227802349999
aF1.2870645288015001
aF1.0412014169045
aF0.807514198481
asS'red-pink'
p191
(lp192
F-15.62763933169
aF4.061998232085
aF5.14617429348
aF-15.408683145945
aF4.22881433407
aF3.9619789504950003
aF0.303484771356
aF0.18721198182755
aF0.30502659045235003
aF0.32149579952449997
aF0.126981981435
aF0.07531883764995001
aF78.50755096535
aF3.560467103655
aF6.984877952455
aF82.2981113178
aF5.0593457718699995
aF6.426972353795
aF0.4062447276095
aF0.18709900606819999
aF0.44765840600249995
aF2.6414397757190002
aF1.7079622789045
aF1.35525399495
aF92.99424947214999
aF2.759199297105
aF6.94224532914
aF100.5172407375
aF9.008695205715
aF5.88140195535
aF0.7236063169139999
aF0.05617348094615
aF0.31476656355099997
aF4.52390822714
aF1.5239469489520001
aF0.9537435330725
asS'poop brown'
p193
(lp194
F38.63282981975
aF3.779443809915
aF5.079593043385
aF39.7106984867
aF3.583828985305
aF3.88014597304
aF2.9531523364935
aF0.4108273826456
aF0.47808729439455
aF2.6509460346855
aF1.0823633144421
aF0.43993219182955
aF82.00784402685
aF3.41601135889
aF10.29402159114
aF89.23808480225
aF9.348694437879999
aF5.7096580839249995
aF3.05381587724
aF0.3401447666405
aF1.8237040922499999
aF5.310550895515
aF1.3158275863339999
aF1.7398798222649998
aF58.5104611516
aF4.86806352286
aF5.03434382773
aF60.267859383899996
aF3.5926243937699995
aF5.09410140503
aF1.071063987868
aF0.393544136672
aF0.49671807389550005
aF1.3595290422025
aF0.605773789588
aF0.9931094105005001
asS'ocean green'
p195
(lp196
F155.5242217005
aF4.396787958145
aF7.40296783594
aF157.53847635649998
aF4.08567047657
aF6.15028534127
aF1.4092025139359998
aF0.5214520821915001
aF0.7007337810225
aF1.5332264116895
aF0.4698347593095
aF0.758375414085
aF95.0659299738
aF3.26613293685
aF10.063325794785
aF100.92624674385
aF5.565055273695
aF5.929258534835
aF7.0768284286
aF0.32079231951264997
aF2.14770557702
aF6.819718331215
aF1.35210866694
aF1.7622297706599999
aF73.69293258645
aF3.54671752302
aF7.96181573986
aF75.75553762655
aF4.27728637596
aF7.798272205270001
aF2.0547620588035
aF0.8410740500835
aF1.8368808527915
aF1.6777317338715
aF0.5442391448965
aF0.768317815102
asS'slate blue'
p197
(lp198
F213.8646154685
aF3.809840976955
aF9.303522601275
aF214.9880359535
aF3.82098058176
aF8.906085381130001
aF4.089858250744999
aF0.314205487668
aF2.1415214290135003
aF4.23604380716
aF0.561005184532
aF0.9745820229295
aF61.4696297591
aF3.8177005854650004
aF7.545519616689999
aF63.74311560495
aF5.706336421135
aF8.44920730796
aF3.226727502735
aF0.63176083487075
aF1.42650132724
aF3.605903200375
aF0.8224112544835
aF1.1525220786600001
aF77.6846415215
aF3.93823222478
aF7.5913247534
aF81.77739365235
aF7.2653326247150005
aF4.55667979715
aF3.373882207905
aF0.5288815837635
aF0.971939523605
aF4.4828966801900005
aF1.5388538022495002
aF1.4536124693349999
asS'red violet'
p199
(lp200
F-44.016264314989996
aF3.970472833015
aF4.296187933140001
aF-43.505868693195005
aF3.58763205283
aF6.38386632145
aF0.9699667439605
aF0.24592075803655
aF0.19393708523135
aF0.9276331755595
aF0.161021796317
aF0.4744692488715
aF98.2910715439
aF3.626376423465
aF9.628368441865
aF103.935457259
aF5.681408637680001
aF6.793542001565
aF5.326389763782
aF0.2006050920097
aF1.142429991908
aF8.112550786285
aF2.70641019257
aF1.20661891258
aF90.97459493714999
aF3.59030488071
aF8.94923441299
aF100.5741923545
aF8.46130482321
aF9.078389609895
aF2.37451654714
aF0.09753414432134999
aF0.936146478888
aF6.516960416595
aF1.527172505357
aF1.139258548625
asS'sea blue'
p201
(lp202
F198.63679431
aF4.56780166163
aF7.462770567885
aF201.14631406
aF4.237566124200001
aF8.65400951713
aF3.5559076647250003
aF0.631078079959
aF0.8931886220085
aF2.621572521725
aF0.745794767935
aF1.8429348870645001
aF81.29628788
aF3.177356896505
aF9.20272479743
aF88.67267625145
aF7.8434176381050005
aF8.940465387265
aF3.605796493415
aF0.37508084059975
aF1.48366271269
aF5.342363615725
aF1.12679342461
aF1.34486803252
aF90.522086051
aF3.9485673472
aF7.57968035701
aF96.09134627255
aF8.26717745194
aF7.258205445115
aF4.117406278855
aF0.659296765227
aF1.503654584005
aF4.871661206045
aF1.7820072636400002
aF1.887755140695
as.